(itinn
Tinn
p0
(dp1
S'b'
p2
(lp3
F0.27758371211154054
aF-0.11604227506887987
asS'h'
p4
(lp5
F0.5980309984129342
aF0.5057383123080953
aF0.427224273879951
aF0.38122250972900645
aF0.6291774866584376
aF0.5050380714184532
aF0.9003414760026118
aF0.21318260129813973
aF0.861129094922846
aF0.15076765817796275
aF0.22757426469085454
aF0.7897309557944217
aF0.6440975280935303
aF0.34234254735436426
asS'nops'
p6
I2
sS'nhid'
p7
I14
sS'o'
p8
(lp9
F0.9529485949644086
aF0.04689865422217191
asS'x2'
p10
(lp11
(lp12
F0.41452054442676317
aF-0.04370209093055429
aF-0.39944281621258165
aF-0.5802294301046509
aF0.28176220979932104
aF0.5177751226251094
aF1.2178381778942384
aF-0.7599430011316685
aF1.1693584842545968
aF-0.9409416045775462
aF-0.6561706161351758
aF0.9829160811094497
aF0.8644753369465986
aF-0.3745683442843651
aa(lp13
F-0.49943371270951786
aF-0.5981388964762778
aF0.35973246117819874
aF0.3337250973934549
aF-0.7181042585174426
aF-0.13987311142177447
aF-1.4350275510400614
aF0.7976856655504959
aF-0.9924933097112926
aF1.034100672824852
aF0.8267050999960145
aF-0.6550558059837832
aF-0.20110225268041126
aF0.6516010491226071
aasS'x1'
p14
(lp15
(lp16
F0.0010233551323929116
aF0.0007678114771815832
aF0.001524144438099593
aF0.0008698495407575449
aF0.00099560385715556
aF0.0009237005049853208
aF0.0015743517838287802
aF0.0012125057389921064
aF0.0009067001900874241
aF0.0015742172814337482
aF0.0013827455933850391
aF0.0007020809693585168
aF0.0005734713177816555
aF0.00022986031522505206
aF-5.531498606007303e-05
aF0.0013209100294999114
aF0.000843404711071666
aF0.0018063079256300672
aF0.0010643792266024734
aF0.0006431261235375579
aF-0.0004699794538086383
aF-0.0011015592906992936
aF-0.00016994358820045114
aF0.0022072863956031524
aF0.00223410027289896
aF0.0020878330645724774
aF0.001613659002966167
aF0.0017948141204892315
aF0.001958810247202529
aF0.0025510271798110567
aF0.0016905733670986337
aF-2.5114703774909725e-05
aF0.001829883492547532
aF0.002965048206192759
aF0.004314796872330382
aF0.004698980355748003
aF0.00251805006102195
aF0.002255631428393852
aF0.002481499714928232
aF0.00560501901849406
aF0.0034603463081235054
aF0.005203440066548781
aF0.0003530654917550313
aF0.0024391638901292098
aF0.002900851226293089
aF0.005142904264739575
aF0.0039116582435618046
aF0.0007327413095048268
aF0.00048373636716419945
aF-6.795140084146775e-05
aF0.002724767617795618
aF0.001601649539479357
aF-6.874515603907144e-05
aF0.00034773453574593995
aF0.0009671005156243163
aF0.001097159853390825
aF0.0014489473986915222
aF0.00018268167697110837
aF-0.0004723094695314731
aF-6.888119716143953e-05
aF3.1978283254452317e-06
aF-0.002154711502907202
aF-0.00032855922480336133
aF-0.0008232934186767474
aF0.002190288119595327
aF0.0022004582059556256
aF0.0005837780484501498
aF0.0002648144721622061
aF0.0009083845807570597
aF0.0004707681630577329
aF0.0022207361662022387
aF0.0010789008517115724
aF0.002205459202327188
aF0.00039055446783889603
aF0.001387975032839692
aF0.002382436080840602
aF0.0025210146226607136
aF0.0015516385039782837
aF0.0012150364173286843
aF0.0001764444125602617
aF0.001847808809575861
aF0.003513159655588346
aF0.0015564745946959027
aF0.002976429175605184
aF0.0009082826073029676
aF0.0018435212914162955
aF0.0004817318261922367
aF0.0020591185590397004
aF0.0029930454519863214
aF0.00019665214679211418
aF0.001976288965096661
aF0.0017607927793895433
aF0.00255297650627767
aF0.002194341353560175
aF0.0022297649456368453
aF0.0017530440598600284
aF0.0018587927409817785
aF0.0009850622602427235
aF0.002626291125081832
aF-0.00010675173801998589
aF0.0021311409449946356
aF0.0034621457440595044
aF0.0052245087389077936
aF0.0018400769600848239
aF0.00010465083415492091
aF0.0015691340821916342
aF0.001982705945119919
aF0.0027180485108588893
aF0.001823506809597036
aF0.004775027327312918
aF0.0035215874139172816
aF0.010222227105348347
aF0.008810213433560338
aF0.0004080908560340541
aF-0.007881794411407045
aF0.000520567503095781
aF-0.006161534016737416
aF-0.021037339315993574
aF0.006279660284739318
aF-0.008023297799550964
aF-0.015135402706554063
aF-0.014944916346177034
aF-0.02076821477189255
aF-0.018034836385083203
aF-0.0001993398436779802
aF-0.00047130095872652966
aF0.004540730042316538
aF0.0035587602287198094
aF0.01087979803016073
aF0.015803919332083277
aF0.029054650459363042
aF0.02766589903781966
aF0.008892622929405902
aF0.028763865791961694
aF0.01617167146824031
aF0.05396440238781034
aF0.032995831770100445
aF0.05861887866462433
aF0.0391570191768416
aF0.028305527911301854
aF0.005385286298921669
aF0.025204706209723936
aF0.02830158978217452
aF0.010179761147212075
aF0.008904719097004733
aF-0.0011825678853973494
aF-0.0003016661350907231
aF0.0025101125648573086
aF0.0035594301417236117
aF-0.004764088040355901
aF-0.016325801275845698
aF-0.0007477808211487935
aF-0.004171329691289112
aF-0.009335001215440049
aF-0.0012096892374005392
aF-0.006379496144774939
aF-0.007348762250055869
aF-0.011354834360687098
aF-0.009874109947520584
aF-0.014487577869204252
aF-0.025456931775494247
aF-0.008028989651717625
aF-0.03453241577769795
aF-0.03055934109277274
aF-0.02570603853199996
aF-0.024523810454791392
aF-0.035901100927749174
aF-0.018253460635037473
aF-0.022950627923465146
aF-0.018642653470005887
aF-0.02343751343935692
aF-0.0050166942599377
aF-0.008181489444150305
aF-0.00011022678538697847
aF0.005071469668095864
aF0.00581891806757013
aF0.004214307461079958
aF-0.00484643887370637
aF0.0005828762693081607
aF0.0038903037807427256
aF0.009079746923195096
aF0.005272901595514633
aF0.0035688368216799976
aF0.008646582698607855
aF0.008824680575362382
aF0.009178833560164067
aF0.009402052012353427
aF0.008220669162220771
aF0.003973041228632873
aF0.013743137562509701
aF0.014644685460347244
aF0.010764779131762083
aF0.005158365261274206
aF0.004803350715112707
aF0.0018928313875712787
aF-0.004201625677567214
aF0.005025821807494063
aF0.003918012577260744
aF0.004000351501225157
aF0.0036634279505844748
aF0.0006834103102184562
aF-0.0014481227228015294
aF0.003283198711942502
aF-0.002919090257263374
aF-0.0030934670230188784
aF-0.0006354461014580907
aF0.005418887811248592
aF0.001321680653910574
aF0.00489413761053413
aF0.009113683618943848
aF0.005834549644016592
aF0.013486089124276937
aF0.0018407119361403268
aF0.004973925678042751
aF-0.0016447244265853352
aF0.008155461711185544
aF0.0031916258449272684
aF0.009994048310468998
aF0.003340034095361132
aF0.003162811334508263
aF0.0008124552931741053
aF0.0006366474442607637
aF0.005910945796897883
aF0.00638855061835455
aF0.00933798112883401
aF0.0010118545039743683
aF0.00794178195077354
aF-0.007350345902885343
aF-0.0038484525445565674
aF-0.02524441661969058
aF-0.019772069234912044
aF-0.05747156828265119
aF-0.04733904664116219
aF-0.01812476086199711
aF-0.028211407461727112
aF-0.04158870922566982
aF-0.034747000241186474
aF-0.016541638695532688
aF-0.01805814579155081
aF-0.029611154544858027
aF-0.020248273474808544
aF-0.02092314837974753
aF-0.024605967190581297
aF-0.01962153668887053
aF-0.015615414271766883
aF-0.013331519154198232
aF-0.014036383138944033
aF-0.01924497721984351
aF-0.018351496915506856
aF-0.02522801529107578
aF-0.0191463474992942
aF-0.016882921707231498
aF-0.010584924134266213
aF-0.013135360550544706
aF-0.0007684825895245088
aF-0.020026233934604412
aF-0.006042517163119062
aF-0.007085265457713611
aF0.0036552540483006887
aF0.013841448909221732
aF-0.0069585283132230094
aF0.01095589978350421
aF-0.0028122375354090274
aF-0.006921014652902516
aF0.004021616259422421
aF-0.026515125125616615
aF-0.00017932102717624018
aF-0.0033257433863802138
aF0.010349579194576823
aF0.030897610581987228
aF0.02789227709867941
aF0.03735770781926375
aF0.0067513465933996715
aF0.042050272188576696
aF0.047567513277038016
aF0.027323352790883458
aF0.019521923696721788
aF0.003866185039731758
aF0.03284152667951109
aF0.0486731502879632
aF0.06159424214558119
aF0.05952823552918576
aF0.053728259931672476
aF0.02968723781505873
aF0.028247616962862737
aF-0.008722833754372786
aF-0.0008412665609474526
aF0.003871084613762048
aF0.019495475631785646
aF-0.012946928680249313
aF-0.02354717427853436
aF0.003080943457974801
aF-0.007978914315346265
aF-0.012981497965663159
aF-0.0014741232564613516
aF-0.0169260274732945
aF-0.0359988681710322
aF-0.02785107516557689
aF-0.03738273723196429
aF-0.030393385057918762
aF-0.027472160524923614
aF-0.026257990952274962
aF-0.05694776621108556
aF-0.047258839392208485
aF-0.027475797133197536
aF-0.012693890077180399
aF-0.011584731234625702
aF-0.031534043713167925
aF-0.019732341641086077
aF-0.03746316922082064
aF-0.03283912661967594
aF-0.020681555843299403
aF-0.044490482600010234
aF-0.02286918600981151
aF-0.02968329358091723
aF-0.04840592690374022
aF-0.03657542031425086
aF-0.04737027164086574
aF-0.052458711026098975
aF-0.013033142399503424
aF-0.04353876731604975
aF-0.0336711806226745
aF-0.037315827275068075
aF-0.032125801265905814
aF-0.04352430554613652
aF-0.03948968861122831
aF-0.021127254119209935
aF-0.04559243385740505
aF-0.02246070395715554
aF-0.05413841666069002
aF-0.0355041823400406
aF-0.05491370659151395
aF-0.04080467682267328
aF-0.061986235568010306
aF-0.0584792115830403
aF-0.06893018142047216
aF-0.04583613739708074
aF-0.07760876512434478
aF-0.05766826243532564
aF-0.04039401550235651
aF-0.03787295458796031
aF-0.02384727657582577
aF-0.023134691849144552
aF-0.029718044373955768
aF-0.02173090615064403
aF-0.013823262234920346
aF-0.03461485394009324
aF-0.04149636690902907
aF-0.003702230575174033
aF-0.03494388055243746
aF-0.024741750907705036
aF-0.046284676578553584
aF-0.029993489367146183
aF-0.009755634037176301
aF-0.031171610310241248
aF-0.03838892857957907
aF-0.0359931549797156
aF-0.005179862523483994
aF-0.03342242283741426
aF-0.029350058847333643
aF-0.016011606016216248
aF-0.011210407722343408
aF-0.030794548418654803
aF-0.029365902319535984
aF-0.031224123462654376
aF-0.011912736880339872
aF-0.01614293638520108
aF-0.011789543395995507
aF0.002884227876186596
aF0.003614446215625464
aF-0.019240683891100004
aF-0.0024051622216275425
aF-0.004372630923040954
aF-0.013194615874502255
aF0.010667521452066307
aF-0.019243964877970678
aF-0.006358248363911098
aF-0.0020798523698714157
aF0.0030674628814484
aF0.0038065269172071255
aF0.01300979437194372
aF0.02159216340671823
aF-0.007816252040264027
aF0.02580771390557365
aF0.0023376576117130317
aF0.014342039574084016
aF0.010285254942086564
aF0.008556138271798592
aF0.040055263201182176
aF-0.0071101449231820565
aF0.027383036682632117
aF0.027017771188719772
aF0.033621956236811294
aF0.018724064998358155
aF0.029111526477450765
aF0.04091346528152992
aF0.008244429787411155
aF0.0016837034149568089
aF-0.01038967362041944
aF-0.012988926094658569
aF0.017002189886050935
aF0.009382353835221452
aF0.025679376928947513
aF0.02147143641981545
aF0.0029883444465589096
aF0.02660455536206526
aF0.007187121303706899
aF0.03667033718682034
aF-0.010907104453027743
aF0.008666464727381092
aF-0.008932724225030896
aF0.006169527817024527
aF0.03362661697696492
aF0.015604453268158033
aF0.014238447097499586
aF0.02490576029525266
aF-0.001283792680459869
aF0.003908587565129201
aF-0.015074684156898992
aF-0.005754724286290446
aF-0.006873135480820512
aF0.020303456200058016
aF0.014051370266229797
aF0.04428812772511417
aF0.0005566397613611741
aF0.03067403341943446
aF0.049492925796859384
aF0.019108921344367615
aF0.017106667463033458
aF-0.005246250434491891
aF0.026048681399290625
aF0.03725731478084374
aF0.015875556120904615
aF0.014966926938844093
aF-0.05337881911188052
aF-0.028574607448932365
aF-0.0033573399682502616
aF-0.004941091537770169
aF-0.002794267605103862
aF0.00540583627794225
aF-0.029678403231673416
aF-0.03921784514275717
aF-0.015794826745430122
aF-0.034096426190445187
aF-0.030017739560969512
aF-0.010370667521178916
aF0.005823369045705168
aF-0.046865083301494755
aF-0.04151854482280513
aF-0.04203551930989366
aF-0.03612642717037571
aF-0.034366916927162795
aF-0.02534150266990016
aF-0.005787587972958947
aF-0.046001053484674446
aF-0.024299728617284227
aF-0.038475757390937344
aF-0.06547551008298143
aF-0.05917241596602017
aF-0.05913576274669081
aF-0.03340092409988574
aF-0.034765944261116274
aF-0.01897650746282072
aF-0.058975655099336464
aF-0.04608737899244285
aF-0.09260786469383799
aF-0.09683320344622764
aF-0.05937686996169048
aF-0.11406009967614149
aF-0.07686683467668584
aF-0.019493783502161577
aF-0.06196460333672348
aF-0.04505705376439369
aF-0.0687479316686407
aF-0.05135865620287089
aF-0.06723429432695316
aF-0.05294747536029213
aF-0.041092498946805396
aF-0.05477693793683204
aF-0.031321713079677585
aF-0.026785555987516547
aF-0.02836455298977086
aF0.003323072767097889
aF-0.010906907248014856
aF-0.02838073143154127
aF0.02015165665737215
aF0.011033660303172066
aF0.03548220308150201
aF0.02245610915252115
aF-0.010100690880646218
aF0.04163385796771976
aF0.0017068970954718583
aF0.007279701720401145
aF-0.046988730440580044
aF0.028047557313981304
aF-0.04071202945194248
aF-0.018898619548210323
aF-0.008117455538402594
aF-0.00509966945887497
aF-0.018907277520376048
aF-0.011654390229009232
aF-0.019038305740257635
aF-0.026888553400910214
aF-0.016695584864862372
aF0.0003309610807342759
aF0.003000737244108087
aF-0.004456552088135807
aF0.010586135035550379
aF-0.004310561510972631
aF-0.004638968720089413
aF0.03058026980844147
aF0.003920488452091239
aa(lp17
F0.00036470835240820607
aF0.00031893242099677234
aF0.0007591720955103462
aF0.0004031421398608405
aF0.00043564823968716564
aF0.00042790925073566435
aF0.0007577408307743723
aF0.0005417873575838032
aF0.000360588869690376
aF0.0007072430320365876
aF0.0006244570060166275
aF0.00021081845054869597
aF0.00025785721801186194
aF-2.640101941488786e-06
aF-0.00017700642494742185
aF0.0005574662929011613
aF0.00023130688397154323
aF0.0007822505246147509
aF0.000406278372572551
aF0.00017817930682957291
aF-0.00048375151729825223
aF-0.0009110950420970314
aF-0.0003984930167317597
aF0.0010293458049542438
aF0.0010308374371036221
aF0.0009011148327396502
aF0.0007368605934385567
aF0.0007963781107798586
aF0.0008740571304699151
aF0.0012378405430644968
aF0.000729696495002929
aF-0.0002619864956256674
aF0.000874950076843335
aF0.0014461335205333303
aF0.002235818352785864
aF0.0023712675439542083
aF0.0012005669383859264
aF0.001008816290859194
aF0.0010817952035876157
aF0.0028410890504911384
aF0.0015838138576507667
aF0.0026761294156357972
aF-0.00010390542901523718
aF0.0011644692464763138
aF0.0012555878499977094
aF0.0026025933026598974
aF0.00196895127270857
aF0.00012876968652628204
aF0.00014479715542049635
aF-0.0003633037525820056
aF0.0013333877666803636
aF0.000632175191114718
aF-0.0002745502357910083
aF5.655417244330219e-05
aF0.00042179771875283623
aF0.00040226177623590276
aF0.0006095359545564672
aF-9.935368227786262e-05
aF-0.00046010413804303384
aF-0.00019654682950299708
aF-0.00020100308278933252
aF-0.0015469468066757301
aF-0.0003163553753489553
aF-0.0007739405971052938
aF0.0009642370328376232
aF0.0010315513810267459
aF1.827528784045265e-05
aF-6.619054648811747e-05
aF0.0002179341861043213
aF-3.650904107348402e-05
aF0.0009240470461787172
aF0.000253709657628363
aF0.001015630300287943
aF-0.00012358180346863884
aF0.0005271202126643515
aF0.0010890155725756274
aF0.0012135768940106032
aF0.0005582324850248098
aF0.0005959166574565887
aF-0.00019686663106110533
aF0.0008459313948016727
aF0.001698514626447237
aF0.0005901380149578766
aF0.0014387293330680394
aF0.0003632750947209114
aF0.000856147857785323
aF6.806073515881099e-05
aF0.0008940938930348296
aF0.0015136980441818404
aF-0.00026255533239105027
aF0.0009206151144750237
aF0.0007207791124604
aF0.0011387712195516692
aF0.0009953312304356754
aF0.0010885209851941846
aF0.0006332363592354132
aF0.0006415691063583908
aF6.492714801167469e-05
aF0.0011042970506239794
aF-0.00044233439947325315
aF0.0009728055136283213
aF0.0015442655437785929
aF0.002530501514724207
aF0.0007166477157296997
aF-0.00018598665620869396
aF0.0006610513717600975
aF0.0007652575727853462
aF0.001203097487563755
aF0.0007187242344926782
aF0.0024165326547136694
aF0.0015265016347933587
aF0.005370715237360123
aF0.004344227052638935
aF-0.0010369669971262165
aF-0.005993903613793629
aF-0.000990806158676346
aF-0.0062213343029115156
aF-0.015108344026888767
aF0.002435885396203491
aF-0.007031503317750713
aF-0.011121114174116776
aF-0.01038884012230181
aF-0.014254808426201122
aF-0.013280179599351976
aF-0.002220127607769288
aF-0.0027951994081447935
aF-0.0008322122043869265
aF0.0001677414089398398
aF0.002486541845059073
aF0.00581709329354334
aF0.01331820950821302
aF0.011539631582593092
aF0.0015607964360634722
aF0.01317409847346942
aF0.0057546419259954
aF0.025912714580903166
aF0.014245551024269018
aF0.027000217050836335
aF0.01836131567649969
aF0.013282215395729713
aF-3.948285978824539e-05
aF0.010734195067654877
aF0.012595483609443748
aF0.0019940260350403377
aF0.003359872285317378
aF-0.002274064746147004
aF-0.002392396566114875
aF-0.0011303864227276176
aF0.0003295235331599692
aF-0.004580869451455376
aF-0.01142266285063052
aF-0.0013040582646471413
aF-0.003987802799960499
aF-0.007268012094545625
aF-0.0021047641449691177
aF-0.005441477392001895
aF-0.005570400112110306
aF-0.008222610626913757
aF-0.006867684404076325
aF-0.00970770473332115
aF-0.01714249455151709
aF-0.006300459017254913
aF-0.02324711582217241
aF-0.02109278531725568
aF-0.018030665354639503
aF-0.017211137507623032
aF-0.02431517364545588
aF-0.013110665187013133
aF-0.015699675643768438
aF-0.012833926856089164
aF-0.016016102939348482
aF-0.004618478979576349
aF-0.0065014370444766816
aF-0.001584326530997867
aF0.0017641150198739676
aF0.0023128047683188585
aF0.0012295692917196688
aF-0.003930290184738304
aF-0.000669030948205129
aF0.0011977319849655588
aF0.003983116397176684
aF0.0018542559687619116
aF0.0013165616833659352
aF0.003942183965693371
aF0.004047064693420392
aF0.004371645643033486
aF0.0043920949599834894
aF0.0036142930979131548
aF0.0014071634967875017
aF0.007023497963414213
aF0.007309494366938585
aF0.00537515810318837
aF0.002076276562455176
aF0.0022064876976836856
aF0.000548968675377262
aF-0.003196274043630275
aF0.002124414513253146
aF0.0014465220596853153
aF0.00170853813447671
aF0.001261826563524154
aF-0.00043279798581767446
aF-0.0016823414670322381
aF0.0013594490971156736
aF-0.002257964902310831
aF-0.002651180772638108
aF-0.0011449578370996475
aF0.0026009325293120844
aF2.7809346182628324e-05
aF0.002049574708591267
aF0.004347108870197208
aF0.0024889640114592547
aF0.006776379991856735
aF7.0194536672617705e-06
aF0.0019797730021052064
aF-0.0013421495057676254
aF0.004112857082798852
aF0.0009314189493088673
aF0.004801370816128173
aF0.001101467162275051
aF0.0008295880052673761
aF-0.0002727770360339998
aF-0.00025640600574040624
aF0.0023638393006824685
aF0.002823229874945514
aF0.004223288955891556
aF-0.0002186192310495342
aF0.0037083101947762214
aF-0.005312745427268724
aF-0.0030579290691316865
aF-0.016213794397718105
aF-0.013691252645378573
aF-0.03677452562873553
aF-0.030645994990085516
aF-0.013408104021929325
aF-0.020703318167640046
aF-0.027996635681850963
aF-0.023017316114281573
aF-0.011335434504576294
aF-0.012590303585685478
aF-0.018889039903541804
aF-0.014395992136617351
aF-0.014364483401777709
aF-0.017321165683195194
aF-0.013051076622436552
aF-0.01137873447408337
aF-0.009912178067269435
aF-0.010110474074478688
aF-0.013250888086249074
aF-0.012498371656547191
aF-0.01698054613612873
aF-0.012803283990691796
aF-0.011652886828073049
aF-0.008304343030402244
aF-0.009820165830085659
aF-0.0030906266317753113
aF-0.013630959273646102
aF-0.006286610068719543
aF-0.006282622142983147
aF0.0001847386977302833
aF0.005674211089527723
aF-0.007537849753309434
aF0.0037599736244653876
aF-0.003339098337042118
aF-0.007557955911441064
aF-0.00023374554260934457
aF-0.01856931081652288
aF-0.0035053415883432946
aF-0.005254882416551256
aF0.0014058494777731407
aF0.014140130155785944
aF0.011701647281868826
aF0.016707431665377744
aF-0.0006080560028190311
aF0.01973321831437071
aF0.024002163741409153
aF0.011307325455412312
aF0.007587847339608018
aF-0.0016749565668745048
aF0.015419140809872283
aF0.02331661797912731
aF0.029571867287530345
aF0.027348536775014927
aF0.024378544836702286
aF0.011620361491587303
aF0.01253767343439289
aF-0.008597201318881113
aF-0.005407431579881518
aF-0.0028858166799577314
aF0.007569567422528214
aF-0.01113930361096096
aF-0.017779539283065745
aF-0.0018003299560727457
aF-0.008601654360346019
aF-0.010915381896769414
aF-0.002976972843219886
aF-0.011888233826506495
aF-0.024818383574962934
aF-0.018388406040052756
aF-0.02506085236240381
aF-0.021367461314821763
aF-0.018738418408496507
aF-0.018481077678096966
aF-0.03741204398735022
aF-0.03151068103716617
aF-0.019458525571374997
aF-0.010004640217535988
aF-0.00866555699575373
aF-0.022307507088749356
aF-0.015025863622261057
aF-0.02506150248937329
aF-0.02313985862400082
aF-0.015691218381729512
aF-0.030027527805532365
aF-0.017146407671503414
aF-0.020830845900525682
aF-0.03146435237590089
aF-0.025079722556489988
aF-0.031820669677929604
aF-0.0346377579968636
aF-0.010452190282635464
aF-0.028826831343375305
aF-0.02304870866792723
aF-0.025642758097834697
aF-0.02162048841441368
aF-0.028780548890153045
aF-0.026166285160980025
aF-0.01508123112382758
aF-0.02986450771640208
aF-0.01630897347265548
aF-0.03711931644008381
aF-0.025412394336867733
aF-0.03775545239839068
aF-0.0296024531795522
aF-0.04273548322788437
aF-0.040977841615432206
aF-0.04713304909811624
aF-0.03245436445959632
aF-0.052308510568497266
aF-0.03904998981232576
aF-0.027306696930815198
aF-0.025536798543399148
aF-0.016023181465019628
aF-0.015325586981028984
aF-0.019802950129886792
aF-0.014479942783125598
aF-0.010443439454768796
aF-0.024314134693617487
aF-0.02811577215574115
aF-0.004867081387748207
aF-0.024505171009901457
aF-0.016681666022595718
aF-0.03062155513518379
aF-0.021220254289909833
aF-0.007001480064544669
aF-0.02049768022119574
aF-0.02513133266781598
aF-0.023327442988434123
aF-0.004087300810082572
aF-0.02240808158471459
aF-0.019237946239191672
aF-0.01115975715512674
aF-0.008485628621775944
aF-0.020175543511066384
aF-0.01946270278141952
aF-0.020971408882417848
aF-0.009578812928479551
aF-0.011405955194674756
aF-0.010496988562382691
aF-0.00030302927891417313
aF-0.0013122929169562371
aF-0.015303043464029201
aF-0.003276381728542489
aF-0.00444918462530703
aF-0.009597585270258389
aF0.004905058892030744
aF-0.013449251689270442
aF-0.005776113505003877
aF-0.0029594365759515336
aF-0.0009434687946905253
aF-0.0005086642702351451
aF0.004796752556533859
aF0.009843926422472853
aF-0.0066871602109768785
aF0.011635811884600104
aF-0.0013649661232295203
aF0.005262257784867643
aF0.0030907309863277164
aF0.002283819496623782
aF0.019879458668374345
aF-0.007499018633420187
aF0.010499981171213084
aF0.012205008135132828
aF0.015484068599062577
aF0.005909782656608084
aF0.012338919026258638
aF0.019532178333958494
aF0.0007417755619405434
aF-0.0026909331814361018
aF-0.009864410305658686
aF-0.011314553506947399
aF0.004681695606243702
aF0.000953537361057035
aF0.010297637283413928
aF0.007314301923037133
aF-0.003481642075115649
aF0.01029987537467019
aF-6.261469840679803e-05
aF0.01814894009535515
aF-0.009941926150916153
aF0.0027922763090362365
aF-0.009611649897858848
aF0.00041726474195962263
aF0.015168247735943679
aF0.002273805030207434
aF0.001250896557478558
aF0.010207527849661719
aF-0.0050802087747092535
aF-0.0014435335734708195
aF-0.012322622667693423
aF-0.0076461621654183905
aF-0.009455172474793905
aF0.0060123083903556316
aF0.00034092707387463176
aF0.019190252174069906
aF-0.003872325828203802
aF0.012328101510039081
aF0.02243075558469721
aF0.0060900381189553056
aF0.003678470258253497
aF-0.007244252991067675
aF0.00988673670035144
aF0.014096160172806897
aF0.0023543266643980187
aF0.0031092696630372007
aF-0.03774996746476944
aF-0.020718257678875866
aF-0.005310924700257248
aF-0.007523974088492215
aF-0.005457696562151749
aF-0.00032081797941669156
aF-0.022992076726348055
aF-0.026633322684998063
aF-0.012694408220664397
aF-0.026771890131820186
aF-0.02703897470458568
aF-0.014128044773442858
aF-0.0004164758175891968
aF-0.03284162058469301
aF-0.028194148200059964
aF-0.028535355651533627
aF-0.025702171954940737
aF-0.02632459351769838
aF-0.020293146767113746
aF-0.006532216398380943
aF-0.030796803645447443
aF-0.016250535927988207
aF-0.02631093100141044
aF-0.043665986028378824
aF-0.03904684489339224
aF-0.03715274979551402
aF-0.02256499493270879
aF-0.025328004617459078
aF-0.013847308336689944
aF-0.04035507638841251
aF-0.03138589379311423
aF-0.06114152518535301
aF-0.06327791404066767
aF-0.03935411729793413
aF-0.0752167809251981
aF-0.05031807875931387
aF-0.014545780027526415
aF-0.04028320424238476
aF-0.030333498583220746
aF-0.04572073474866614
aF-0.03418251218926488
aF-0.04571035791310095
aF-0.035615613371269846
aF-0.028945909216960414
aF-0.0376690063134945
aF-0.02170814822632162
aF-0.01954259835650637
aF-0.020280260300747293
aF0.00022474515695756299
aF-0.011566182030752327
aF-0.022773008587456473
aF0.007922931759932278
aF0.001978833162477332
aF0.01604316860524826
aF0.00683737171783737
aF-0.011974359766209442
aF0.019477251844863222
aF-0.0021747715110033133
aF0.0007318757426931111
aF-0.03173619941478095
aF0.013320818062765168
aF-0.029218877711741576
aF-0.01733722775534317
aF-0.007539974690532975
aF-0.00600384499526099
aF-0.015594741069108896
aF-0.011479267213645448
aF-0.015655753062656114
aF-0.02317766974145173
aF-0.014144144377611727
aF-0.003445549844079469
aF-0.0030038977154329457
aF-0.006797351326756968
aF0.0004955066043844216
aF-0.00992384912254935
aF-0.0071491302338711855
aF0.011971688714828996
aF-0.000783337323371026
aa(lp18
F-0.0012474509383590103
aF-0.000843364198316696
aF-0.0015886774702544414
aF-0.0009653644018461611
aF-0.0011341077757211823
aF-0.0010130413674487647
aF-0.0017229706192922712
aF-0.0013110015852747653
aF-0.0010283265196421342
aF-0.001728390651508896
aF-0.0015111202526911114
aF-0.0008579004329228861
aF-0.0005988048808253214
aF-0.00040648460937685413
aF-0.00017125284307447448
aF-0.0014847947579412523
aF-0.0010611135356886191
aF-0.002013079516001883
aF-0.0012629022022323433
aF-0.0008641545625343921
aF0.00019422995434654816
aF0.0005592557364832775
aF-0.0002728299463164886
aF-0.002457484273235442
aF-0.0024193579776107628
aF-0.0024576043924361387
aF-0.0017171177137611322
aF-0.002013345822244176
aF-0.002233164964764676
aF-0.0028039518274697904
aF-0.0020105884454017426
aF-0.0003170292820644381
aF-0.00202047576287653
aF-0.003104284505716991
aF-0.004458393886407912
aF-0.004992119137161483
aF-0.0026858764293440094
aF-0.002540822194227599
aF-0.002762859840518102
aF-0.005892803954500705
aF-0.0038461912837708767
aF-0.005426879747762139
aF-0.0007588685673859029
aF-0.0025944098723862455
aF-0.0033473133277863477
aF-0.005361385872993568
aF-0.004060576358714976
aF-0.0011055341673419405
aF-0.0006199387359528119
aF-0.00039130284762665284
aF-0.0029368108070263457
aF-0.0019373758689952855
aF-0.00018079246129792457
aF-0.0005694233651590159
aF-0.0010050570390961761
aF-0.0013425876028295067
aF-0.0015661683505490264
aF-0.00036893582473594266
aF0.00031469257650794093
aF-3.014496601951271e-05
aF-0.00025337946968073064
aF0.0016982641150263822
aF9.996804917995716e-05
aF0.0005127145486437683
aF-0.002583383038676086
aF-0.0023415353119721283
aF-0.0010441937545668423
aF-0.0004855410177858466
aF-0.0013376825170393187
aF-0.0008105145296567197
aF-0.0027125513936386045
aF-0.0014785923944704556
aF-0.0025499435094424885
aF-0.0009060855340509513
aF-0.0016603401713428938
aF-0.002653842426664635
aF-0.002788551803807858
aF-0.0020481786018856107
aF-0.001284296280352433
aF-0.000634008349095562
aF-0.0020499744087274577
aF-0.0038924895241559225
aF-0.0018960083061283467
aF-0.003206274944726255
aF-0.0010596249938046875
aF-0.0021049419008515305
aF-0.0007961695202081522
aF-0.0023810007022759855
aF-0.0031920200554710625
aF-0.0007166898546289472
aF-0.002193818418633462
aF-0.0022000647921476533
aF-0.00303333225014405
aF-0.0025206021715428804
aF-0.0022750102768164557
aF-0.002286468899304219
aF-0.0024906450057876834
aF-0.0018402981827895458
aF-0.0031499523480124124
aF-0.000525253743183812
aF-0.0023827714868762946
aF-0.003939645368158302
aF-0.005773412166801435
aF-0.002290975264575564
aF-0.0003971457792053899
aF-0.0017976160561432874
aF-0.0023859878740496113
aF-0.0031132628989748085
aF-0.002211978174340396
aF-0.005008245964931884
aF-0.004225651768563832
aF-0.010581392471137187
aF-0.009518457807113584
aF-0.002653158704632734
aF0.004932559332298054
aF-0.0028008421959481947
aF0.0010776378006712515
aF0.014586534037454772
aF-0.008066950866321731
aF0.003569503943861144
aF0.010703061659644027
aF0.012001667972294527
aF0.017089178608473136
aF0.013089786059084816
aF-0.0016467402906460663
aF-0.003118492807336393
aF-0.010594944440005919
aF-0.005929145817699772
aF-0.015658336675749552
aF-0.020503221731982966
aF-0.03378040617099498
aF-0.03283728066434408
aF-0.013931333723722173
aF-0.03313128449213063
aF-0.020735525711437122
aF-0.05814279164912783
aF-0.038672210398091184
aF-0.06702852200442772
aF-0.04370619981074403
aF-0.03185229490223075
aF-0.008433723755473944
aF-0.028932046258672083
aF-0.030579719516013393
aF-0.015133474664157752
aF-0.011013601308769065
aF-0.0005626398819803433
aF-0.002004302102240548
aF-0.005403001455516497
aF-0.004965816800681419
aF0.0025555331067921272
aF0.012955212844681072
aF-0.00010200126713909481
aF0.0015938381157240568
aF0.00555834631745349
aF-0.0013696479677732414
aF0.002943636181832229
aF0.004954781549574353
aF0.008077859117377807
aF0.007649551470130399
aF0.011618878888000578
aF0.019642593497775366
aF0.004838793692123171
aF0.026805749494291903
aF0.02284915670816912
aF0.01866802810723602
aF0.01790078329361224
aF0.027466142557614148
aF0.012842282023691524
aF0.017265839721236086
aF0.013928194755853654
aF0.017905609425791606
aF0.0019399450141136655
aF0.00483466142937581
aF-0.0021157545004335246
aF-0.006151474080065661
aF-0.006770420475997429
aF-0.0054848025918762785
aF0.0035478194365581796
aF-0.0013161136278045783
aF-0.004583289398231876
aF-0.010060166872681155
aF-0.006726778726501614
aF-0.00445395812575869
aF-0.009481390816787238
aF-0.009401311926682261
aF-0.009224538760497716
aF-0.009832727357046222
aF-0.009177093990101724
aF-0.004856914613141202
aF-0.014441960740892762
aF-0.015858702996216202
aF-0.011577622765692422
aF-0.006465007277274159
aF-0.005510674274264383
aF-0.0026907715374398233
aF0.0025672138095862713
aF-0.006200101674775235
aF-0.005138996426174618
aF-0.004730029394207023
aF-0.004879736904356527
aF-0.0018658192607869028
aF0.0002011113432390789
aF-0.0035382645074440466
aF0.0023345646924858017
aF0.0018842741725605863
aF-0.0004824248032009378
aF-0.005966061739245104
aF-0.0025128587128845294
aF-0.006056574191266161
aF-0.010297191950217388
aF-0.006935864774401448
aF-0.014522917365086051
aF-0.003486756739914836
aF-0.006109305529435779
aF0.0009232456971433413
aF-0.008703964716352442
aF-0.004586302887398627
aF-0.011043761371479409
aF-0.004302153861031586
aF-0.004352680803399487
aF-0.0016755620082080935
aF-0.0014358372517198476
aF-0.00725149320035684
aF-0.007551360031594948
aF-0.010955905976719147
aF-0.0022923699684443658
aF-0.00912532889382889
aF0.005056975782576864
aF0.002361159123722139
aF0.021229374175007615
aF0.01436773446217772
aF0.04816131937374416
aF0.039232513893098404
aF0.011893249849125721
aF0.018631777597279606
aF0.032475653636561574
aF0.0279261587208651
aF0.012662552742015477
aF0.013603999610609959
aF0.02584943425428805
aF0.01463077914398613
aF0.016238467127417163
aF0.019225492857784052
aF0.0168263908027981
aF0.012215964593994237
aF0.008956814689213393
aF0.01095927489420065
aF0.014572217505470974
aF0.013950836418040213
aF0.02034478052717051
aF0.01624921480417715
aF0.013873469816473943
aF0.006807994151276587
aF0.008746246041590475
aF-0.004080123523638835
aF0.017338982956205003
aF0.0006568739471053565
aF0.003059781846569137
aF-0.006174873199829946
aF-0.01544518529980026
aF4.236050088124996e-05
aF-0.015008866308264654
aF0.0012937258091462755
aF0.0006147176529420798
aF-0.008446186708226302
aF0.019721193765831025
aF-0.004713753361038045
aF-0.0017996480693510614
aF-0.01658084885448815
aF-0.03528052058088422
aF-0.03394545711424106
aF-0.042682901926031254
aF-0.013373180882227732
aF-0.04675042473819491
aF-0.04995437140517652
aF-0.03286593906992371
aF-0.024067206318838075
aF-0.009692108361297835
aF-0.0358899102310817
aF-0.05388878509578816
aF-0.06796516781797107
aF-0.06672417590600577
aF-0.05899764989052234
aF-0.03376252381763658
aF-0.03045044704539425
aF0.0034304839048254054
aF-0.006036708367007563
aF-0.009770681672004483
aF-0.02186725901120704
aF0.008097078877989487
aF0.017899863456284915
aF-0.006072144110742241
aF0.0030750379737557914
aF0.007794195698747201
aF-0.0016629265268438473
aF0.01293842352035745
aF0.02823835025102254
aF0.024394218355498154
aF0.03169999702942574
aF0.024311175794237846
aF0.02435503843259154
aF0.021881714842242467
aF0.047309534874626226
aF0.03770643852280329
aF0.02006479433259712
aF0.008298028692237114
aF0.009462001392628332
aF0.023743290451417792
aF0.013727440111889764
aF0.031814128350787195
aF0.02569781353757641
aF0.014363380106974816
aF0.03601102196863383
aF0.016372240584215977
aF0.023464868984207063
aF0.04111549731320094
aF0.02877873264841296
aF0.038347398159452505
aF0.042991550730707144
aF0.008313426918373458
aF0.03575166908863288
aF0.0267161662849229
aF0.028688756599793926
aF0.02548846649039553
aF0.03518677055707872
aF0.032005595457645475
aF0.01528150922706071
aF0.03724342572455046
aF0.01577286518368031
aF0.04103739449490316
aF0.02562138030466293
aF0.041786737557448474
aF0.028660940091732784
aF0.046963938447176994
aF0.04322215149638211
aF0.05301615574206749
aF0.03400277496232839
aF0.06160848491020239
aF0.046479696418093
aF0.03358990953198873
aF0.03228696171427543
aF0.021188932452241446
aF0.020997410487578146
aF0.02572361616676325
aF0.01946412665437642
aF0.01058403005414703
aF0.026004862790631453
aF0.033046137994755746
aF-0.0010594882459773088
aF0.0253823297288309
aF0.0197670545912267
aF0.037060031514626945
aF0.021478072142448644
aF0.006998962169418447
aF0.025853523707959996
aF0.0328197362674652
aF0.030472694039965848
aF0.003210900784352472
aF0.027768577962701328
aF0.025427430561544756
aF0.01185828005144853
aF0.007398598499318271
aF0.026991965992626214
aF0.023509664140848853
aF0.02614849974869608
aF0.006953268963655204
aF0.013455057772254043
aF0.004635714747831768
aF-0.005165066573540871
aF-0.009038046061779687
aF0.011151192524658089
aF-0.0004697627154666073
aF0.0005821045676658975
aF0.009939675436520357
aF-0.011660390852079188
aF0.014921330011632596
aF0.0033966039165028114
aF-0.0004895768570589133
aF-0.006631590096597605
aF-0.007456930240506384
aF-0.01731425731063762
aF-0.025417406523889702
aF0.005744867163261389
aF-0.03054861359884572
aF-0.006589996034726956
aF-0.01818280505309003
aF-0.012694127073768364
aF-0.013079799128564102
aF-0.04419353964160728
aF0.001982479583101534
aF-0.03617547188913169
aF-0.031257858038067354
aF-0.03845455992861021
aF-0.025651344795097095
aF-0.035268576572138007
aF-0.045852243189665326
aF-0.0137964234879684
aF-0.008373123247284972
aF0.003084062917572516
aF0.0066050741261500494
aF-0.025128815299183996
aF-0.016679627489516336
aF-0.029622772564432288
aF-0.02742426132877039
aF-0.012044191952459335
aF-0.032352040987478174
aF-0.013518983076007884
aF-0.03911512226103886
aF0.004945965129930618
aF-0.009912087933851017
aF0.002885062208270555
aF-0.01028888091539322
aF-0.03754759114125218
aF-0.026409768331517446
aF-0.024439105010308503
aF-0.029304148614685208
aF-0.005893792904021064
aF-0.009868733880479562
aF0.011160205702743828
aF0.0009115076221413187
aF-0.0019435798819629154
aF-0.026535117361738764
aF-0.025212299376326814
aF-0.05026114719639534
aF-0.004278379823168215
aF-0.03539342316384093
aF-0.05474377325696919
aF-0.02244446436677915
aF-0.02582785122252739
aF-0.0004294321084793124
aF-0.029288557860975978
aF-0.043154639747689925
aF-0.020789949256638275
aF-0.019705411750135758
aF0.039223393914559826
aF0.02082628498235561
aF-0.0010555743609295233
aF-0.0011791993117147247
aF-0.0007047051401701291
aF-0.00846599250669954
aF0.01959928727347636
aF0.03149371457224561
aF0.010095979348494176
aF0.021244822216027366
aF0.013567092221756743
aF-0.0011071028704099078
aF-0.007699805854633196
aF0.038412769683254924
aF0.03481013945941201
aF0.03492273941712512
aF0.0275780548968136
aF0.02177828989705943
aF0.016521612306647365
aF0.0034389106490437266
aF0.040374093334171926
aF0.02359907228378334
aF0.03400501745656821
aF0.05630772065785034
aF0.05111551492536168
aF0.053413384839235106
aF0.02659345828341286
aF0.02432742229615556
aF0.014978690948427239
aF0.046456018774340156
aF0.038356741438824796
aF0.07734263464189069
aF0.08171236469107897
aF0.05088917173394409
aF0.0941747739099753
aF0.06601111438353205
aF0.017479891099343288
aF0.05493721745433668
aF0.03955877993257621
aF0.05881058703250199
aF0.04318267537284954
aF0.05166987966951196
aF0.04300081090014702
aF0.03119432129431151
aF0.04311622646686134
aF0.025124718273563218
aF0.018945130523175414
aF0.021271439155827167
aF-0.00590715289388277
aF0.0014176087147049932
aF0.017005735716574037
aF-0.02483110213588344
aF-0.014011498587732487
aF-0.040751562057612066
aF-0.032275666296169
aF-0.0005395293197921086
aF-0.04742823625853469
aF-0.006706975207197931
aF-0.011344304509210734
aF0.03890147266899746
aF-0.03179063782659407
aF0.03089303654393291
aF0.006654771110533149
aF0.004265101422246541
aF0.0009139555602947772
aF0.011087062753759291
aF0.0023216004474399332
aF0.010245243294386615
aF0.011050100512644039
aF0.007755918153240848
aF-0.006808111756278014
aF-0.011480117919292585
aF-0.003342566261539773
aF-0.01977963794595929
aF-0.009401264047976633
aF-0.002473263614949943
aF-0.03976440314656212
aF-0.008723145626426758
aa(lp19
F-0.0015508392587781454
aF-0.0010516222819627297
aF-0.0019350754115285264
aF-0.0011787283900412697
aF-0.0013882604275616349
aF-0.0012410924582784008
aF-0.002090821978884532
aF-0.0016181258384426326
aF-0.0012850716574138521
aF-0.002121898576771621
aF-0.0018546460081249774
aF-0.0010967008274820286
aF-0.0007459075615554868
aF-0.0005242843621714236
aF-0.00023936192503869877
aF-0.0018338320966306719
aF-0.0013375652409306613
aF-0.002463550725726215
aF-0.001551266825506603
aF-0.0010759753971575844
aF0.00018211103775259195
aF0.0006302851389288631
aF-0.0003711653727146847
aF-0.002982144400773163
aF-0.0029383385423300983
aF-0.0029712159351389317
aF-0.0020998693037353466
aF-0.0024650841956273786
aF-0.0027083154620045546
aF-0.0033878964197789677
aF-0.0024297600641905847
aF-0.0004281163797529417
aF-0.00244702095957491
aF-0.003777643004462089
aF-0.005378056145875082
aF-0.006026195541643097
aF-0.003274921114097622
aF-0.003102386944346004
aF-0.003367637438546779
aF-0.007115709946202095
aF-0.0046640087932426095
aF-0.006546100176963343
aF-0.0009709473915084113
aF-0.003162170121438242
aF-0.004077984847597028
aF-0.006483877838639931
aF-0.004925267592212819
aF-0.0013917933891893425
aF-0.0007915532966046962
aF-0.0005404664045380792
aF-0.0035619453794249727
aF-0.0023665401154872425
aF-0.00028557867715686073
aF-0.0007015127907388767
aF-0.0012523900948872206
aF-0.0016543914510498729
aF-0.0019359168706083003
aF-0.0004971847879395175
aF0.00030883508318889515
aF-8.667377950514603e-05
aF-0.00035328696450266455
aF0.0019566006835879755
aF8.197858311217665e-05
aF0.0005095090618963355
aF-0.003131211740083442
aF-0.002858883680203442
aF-0.0013038959285256806
aF-0.0006410649149360652
aF-0.0016598804691953222
aF-0.0010502346734547557
aF-0.003309877461153217
aF-0.001851658698226267
aF-0.0030783052785090474
aF-0.0011561970522195523
aF-0.002043427131970335
aF-0.003230266498925414
aF-0.0033689754417143745
aF-0.002497409590002843
aF-0.001562518746940157
aF-0.0008214921200540852
aF-0.002493767516692631
aF-0.004712155173405271
aF-0.0023295498987379714
aF-0.003908595356006201
aF-0.0013041715676005519
aF-0.0025699238216740374
aF-0.0010008350668181494
aF-0.002913725019783777
aF-0.003857492922541163
aF-0.0009586256666280829
aF-0.0026898718869973475
aF-0.0026793387384877426
aF-0.003661902744599511
aF-0.003056104622658501
aF-0.0027912615813607024
aF-0.002799039246247417
aF-0.0030489059763251654
aF-0.0022615712356279017
aF-0.0038249490073926184
aF-0.0006957701465823624
aF-0.0029156123660823902
aF-0.004803977557719234
aF-0.0069954851448602974
aF-0.0028166556233095224
aF-0.0005648388619068418
aF-0.0022091397052761245
aF-0.002944402080198658
aF-0.003809470149563052
aF-0.002726246362096133
aF-0.006100367413996554
aF-0.005160177877303601
aF-0.012783550034684416
aF-0.011547184100695657
aF-0.0034825476817629667
aF0.005447766846190754
aF-0.003694129488789997
aF0.0007018279129069058
aF0.016804016934069053
aF-0.010040342978228874
aF0.00393257956052638
aF0.011998226175889401
aF0.013826475808269754
aF0.01975367659314355
aF0.014942549050358732
aF-0.0026219659482888203
aF-0.00451869911662697
aF-0.013237530440762762
aF-0.007559780392397322
aF-0.019833918898220174
aF-0.02529351923128443
aF-0.04107646958897012
aF-0.0405106047990964
aF-0.01754732082323083
aF-0.040704722015024335
aF-0.025298258902912225
aF-0.07103539446402386
aF-0.047060288324769946
aF-0.08117174220508667
aF-0.052847215052940995
aF-0.03866402307038355
aF-0.011111735730096156
aF-0.035519616244212356
aF-0.03751967223857343
aF-0.018768056583282965
aF-0.013629644372935323
aF-0.0012279261706594758
aF-0.003009302932931095
aF-0.007130510057323039
aF-0.006471321125775475
aF0.002504546309704531
aF0.01487159941956798
aF-0.0004841699608120913
aF0.0015732121843118824
aF0.006373649765105136
aF-0.0017584182799007895
aF0.00321885628495536
aF0.0056797878511836855
aF0.009225191107784293
aF0.008737761396551393
aF0.013481118051277054
aF0.022883099976004136
aF0.005526572579045992
aF0.03145289736048221
aF0.026811981107318975
aF0.02185377030097857
aF0.021081562924005058
aF0.03233782196994017
aF0.015128806590253134
aF0.020320228405788572
aF0.016414608691186713
aF0.020928628345952344
aF0.002082164606255172
aF0.005475813061990748
aF-0.0028435313648933736
aF-0.007641049600131956
aF-0.008347669294480855
aF-0.006789117444987298
aF0.003936399695928302
aF-0.0019107524431902162
aF-0.005777369736352824
aF-0.012303853057676466
aF-0.008263519598766986
aF-0.005469450100828854
aF-0.011577176550096687
aF-0.01151857012658247
aF-0.011368131216744818
aF-0.012091050580581894
aF-0.01122973320912118
aF-0.006055197864159418
aF-0.01744611634592775
aF-0.019184793388852896
aF-0.013985671682157755
aF-0.007939164634730008
aF-0.00675566660699014
aF-0.003370052607199657
aF0.0029225022881560424
aF-0.0075959338299122214
aF-0.0063397914749005685
aF-0.005776151767609098
aF-0.006125705132192602
aF-0.0024039019844431507
aF-1.1967470808414277e-06
aF-0.004456810107050879
aF0.0025310226141565997
aF0.002008856051974128
aF-0.0007519490175648226
aF-0.007295975053953471
aF-0.0031195993730384793
aF-0.007344539156498558
aF-0.012403672333348182
aF-0.008477615813843925
aF-0.017522998385920707
aF-0.004332496410519369
aF-0.007541670959483751
aF0.0009824352912288197
aF-0.010586528119204172
aF-0.005646979455429711
aF-0.013423844224614394
aF-0.0053764639797816765
aF-0.005522762358007547
aF-0.0022855221621197455
aF-0.0019121580633928391
aF-0.008944771541518376
aF-0.00914578728735553
aF-0.01339239408728214
aF-0.0029162269939579377
aF-0.011120057787608181
aF0.005800868820761801
aF0.0024295097690677134
aF0.02476714508798866
aF0.016742811072758736
aF0.056505491429326156
aF0.04582028680360872
aF0.013790359914955218
aF0.021926298238644906
aF0.03775113206211381
aF0.03257766818223701
aF0.014707821259617308
aF0.015638132560067807
aF0.029965789899584958
aF0.016883074267004458
aF0.018893865810789754
aF0.02205680853673314
aF0.019474584854089642
aF0.0139232154838774
aF0.010321164312767465
aF0.012569816614657699
aF0.01704646972385594
aF0.016208904581860674
aF0.023761637948579245
aF0.01888418745537544
aF0.015946470162039022
aF0.007776199999430425
aF0.009885701851203174
aF-0.005349262157629677
aF0.019747272563145214
aF9.38661088604357e-05
aF0.003070290398622052
aF-0.007886188071427934
aF-0.019259683205177586
aF-0.00040002496061572213
aF-0.018752538340293883
aF0.0008340660393815581
aF0.0001581066276487942
aF-0.010578042458668148
aF0.022837680942592944
aF-0.006604884488537091
aF-0.002901440573665749
aF-0.020901783811587825
aF-0.04317932261819044
aF-0.04125475935405959
aF-0.051929615270072026
aF-0.016744465189567646
aF-0.05689948658269002
aF-0.06046483025980897
aF-0.040032605645605464
aF-0.029676887579895353
aF-0.012525129673922738
aF-0.04370235777338354
aF-0.06530256317472716
aF-0.08215738321931017
aF-0.08082526908731187
aF-0.07181255411895474
aF-0.04170088159618356
aF-0.037482059412400195
aF0.003185164657144044
aF-0.008450588634369607
aF-0.01324557622884672
aF-0.027149253438073583
aF0.008482551248650537
aF0.020103575526044564
aF-0.008526350065492619
aF0.0024880207796339066
aF0.008368537273123774
aF-0.0025567655821380443
aF0.014764837869059546
aF0.032601929323479786
aF0.028133295867740247
aF0.0365010194113788
aF0.027655680477201686
aF0.02774238293588761
aF0.02479621249199811
aF0.05510679067650951
aF0.0440711069923745
aF0.02299500315130906
aF0.009057843385388713
aF0.01068158231575754
aF0.02730596340678543
aF0.015402414879193428
aF0.03693822033224458
aF0.029172771219227508
aF0.016171825457033936
aF0.04180147063475619
aF0.018262171597233697
aF0.026782828593909753
aF0.04769252768707742
aF0.03291089093079958
aF0.044495187390930245
aF0.049926713800579926
aF0.009012687588501593
aF0.041480558001054324
aF0.030927920622193187
aF0.03322607915980939
aF0.029589936109417788
aF0.04113206723098
aF0.037146361717513655
aF0.01752369914555433
aF0.043526725294500114
aF0.018246399004163187
aF0.048078546975610634
aF0.030017755771221198
aF0.04897408995034626
aF0.03366814985583062
aF0.055159689992564986
aF0.05094677760893399
aF0.06234115954364058
aF0.04005548590592044
aF0.07233755694827396
aF0.054475943115078335
aF0.03904771122038631
aF0.03741096341376904
aF0.024405633060767422
aF0.0240364396910041
aF0.02956416341294094
aF0.022149027900655704
aF0.011510085833214535
aF0.03007823347079789
aF0.03812336574407702
aF-0.0015538077327743548
aF0.029738994016584516
aF0.022800001460738937
aF0.04360870308822293
aF0.024987807126589632
aF0.00797836464356769
aF0.030042895092939594
aF0.038168742418902765
aF0.035485494523340946
aF0.0034622884214399307
aF0.03229349562772308
aF0.02925234219845107
aF0.013629526526786777
aF0.008342603764274321
aF0.03142302464663626
aF0.02713769341739943
aF0.030286240701434354
aF0.007696258466367286
aF0.015112035335374342
aF0.0046888151620318895
aF-0.0067200108922032195
aF-0.011428260157226134
aF0.012677162235907978
aF-0.0010796671909522615
aF7.17187234087248e-05
aF0.011268668278474114
aF-0.014289828844174849
aF0.017255355709704615
aF0.0035354209150170813
aF-0.0010419458322699223
aF-0.008737602939341713
aF-0.00956054150824648
aF-0.021113871317251592
aF-0.03094051897967198
aF0.006101531018851942
aF-0.03714922630022338
aF-0.008523411534340082
aF-0.022835663043925952
aF-0.0163686945042808
aF-0.016338881150124867
aF-0.05342668198586617
aF0.001681044087733416
aF-0.044005835700688924
aF-0.03794506432430143
aF-0.04683913544229717
aF-0.03182785626134971
aF-0.042998527292058795
aF-0.05584291014799638
aF-0.017373447220902796
aF-0.010937433676083373
aF0.002523041290808812
aF0.006961159578384041
aF-0.031018044414812873
aF-0.020567512535081642
aF-0.036707266846819346
aF-0.03381210130311292
aF-0.01524902512214413
aF-0.03985456641138692
aF-0.016879285265169654
aF-0.0476284558933866
aF0.0045842424421706305
aF-0.012984961495617956
aF0.002347230250780853
aF-0.013186281529810322
aF-0.0460215441816263
aF-0.03230181247843736
aF-0.030469811956359123
aF-0.03605748997406393
aF-0.0077127400198926
aF-0.012425928070492262
aF0.011907308921335822
aF-0.00019517990792194417
aF-0.0035219618405406914
aF-0.03346119151796351
aF-0.03147227797871955
aF-0.06111601919148992
aF-0.0065477585425498955
aF-0.04369327878125448
aF-0.06719118387942144
aF-0.028518520876465885
aF-0.031892188676127364
aF-0.0011717269540465424
aF-0.03647726228534501
aF-0.05329777890652573
aF-0.027040678569975336
aF-0.025055314935727106
aF0.045494768997311474
aF0.02355083826230323
aF-0.0021539182213436317
aF-0.002440062688470667
aF-0.0021462405376818745
aF-0.01113937870828988
aF0.022292445824017203
aF0.03652581273528981
aF0.011107055284962008
aF0.023693391279470843
aF0.014740353341534356
aF-0.00310270044729642
aF-0.010780301470810143
aF0.04379971865079497
aF0.040160083739107504
aF0.0403858789627355
aF0.031502722846399
aF0.024820753145498614
aF0.018210515615384122
aF0.002912865458446532
aF0.04634982630909843
aF0.026991930952066773
aF0.03923164397147956
aF0.06532898746358486
aF0.05930842169994255
aF0.06206626124830725
aF0.030554629072853428
aF0.027983728821748197
aF0.016692404521693346
aF0.05416631020573178
aF0.044165696147207674
aF0.08957162835175594
aF0.09515356803999975
aF0.05885172056684923
aF0.11024959850156027
aF0.07649054273875727
aF0.019369233160038093
aF0.06356567682186469
aF0.045198856826003206
aF0.06821224669514746
aF0.049890764701494277
aF0.06018199127564721
aF0.04966059429557247
aF0.03596219823862143
aF0.05015367369253085
aF0.028827821742733052
aF0.021943426194667073
aF0.024335354763293036
aF-0.0074936293898172435
aF0.0007256664096232817
aF0.019001073926663434
aF-0.031043788426113786
aF-0.01874565344145826
aF-0.0497085194213689
aF-0.03936573679001842
aF-0.002101390097610777
aF-0.05763137711578016
aF-0.00886512825339111
aF-0.01482342394981636
aF0.04512211173356178
aF-0.03863832318066453
aF0.03556937839632515
aF0.006892390108141065
aF0.0043838928681433405
aF-5.0724470421002124e-05
aF0.012366667085341556
aF0.001756284605095334
aF0.011479754267540275
aF0.01246728284616825
aF0.008726323646537295
aF-0.008506258424963505
aF-0.014630119239185028
aF-0.004889013512018746
aF-0.024767513239494315
aF-0.01210248258359029
aF-0.0038272992744237395
aF-0.04840006406177391
aF-0.011065639320856115
aa(lp20
F0.0012121060146023965
aF0.0008942635939637931
aF0.0017298672247183008
aF0.0009959245473106144
aF0.0011513666194175088
aF0.0010673259687223823
aF0.001791614226774694
aF0.0014017539715856495
aF0.0010655448664692911
aF0.00181067426434269
aF0.0015825831260941835
aF0.000859272903059945
aF0.0006626796092760645
aF0.0003167758156535763
aF-1.0074277954150844e-05
aF0.0015363823938281942
aF0.0010150571870305972
aF0.002068388606031084
aF0.001224589727298299
aF0.0007661595351486496
aF-0.00045477669293478886
aF-0.0011330861703621221
aF-0.00010416912287400729
aF0.0025133200517217145
aF0.0025343259540625412
aF0.0023761447511117194
aF0.0018385188709364036
aF0.0020700099038820615
aF0.002242211700067118
aF0.002903157601934726
aF0.0019372713878591295
aF5.556507988883762e-05
aF0.0020888515215596545
aF0.003382860821238955
aF0.0048595987655881585
aF0.005306927432897038
aF0.0028690635857981316
aF0.0025907786652723578
aF0.0028471742669575555
aF0.00633448397674782
aF0.003957769809300474
aF0.005865155914151975
aF0.0004910472515952582
aF0.0027805966735588716
aF0.0033399674922034686
aF0.005810898632830068
aF0.004432653938389968
aF0.0009195432218906161
aF0.0006005687325835791
aF4.736359734373209e-05
aF0.003104651132857999
aF0.0018646504576242016
aF2.0488714405384206e-05
aF0.0004251929565357459
aF0.0011263569176949975
aF0.0012899631940053267
aF0.0016853580763017146
aF0.00027758363246179146
aF-0.00044009121708105743
aF-1.583240743852698e-05
aF7.924963374725004e-05
aF-0.0022722220670341907
aF-0.0003078990666882392
aF-0.0007774878651850499
aF0.0025115965235371807
aF0.002515178171624328
aF0.0007425149190324844
aF0.0003696468022990236
aF0.0011076962474200988
aF0.0006375987204919719
aF0.002580808910467294
aF0.0013163091462293512
aF0.0025038269252516425
aF0.000552640138101363
aF0.0016207914553625475
aF0.002728486723683531
aF0.0028587829343207694
aF0.0018170441796531555
aF0.0013862699382139036
aF0.00030197664202208206
aF0.0021114311906198498
aF0.0039883165535959456
aF0.0018184416013842428
aF0.0033931860493421557
aF0.001054901269484624
aF0.002121830063169839
aF0.0006134882403171634
aF0.002382049159484135
aF0.0033825849070093688
aF0.00036547388408285364
aF0.002283662328306914
aF0.0020458461024083874
aF0.002917289956866972
aF0.0025098091444624277
aF0.0025562364483131495
aF0.0020556281993585872
aF0.002183284159520155
aF0.001222692342065275
aF0.0030118381548031883
aF3.038221114782395e-06
aF0.002457759584118738
aF0.00397776983782327
aF0.005943076469952186
aF0.0021576744374946426
aF0.00023224312120483697
aF0.0018158068638592902
aF0.0023218923381703965
aF0.0031320405796101906
aF0.002142701936119087
aF0.005446073688130846
aF0.0040832201724822735
aF0.011525565635915029
aF0.010028579561837805
aF0.0010030831073373448
aF-0.008001224368980079
aF0.0011623959702082296
aF-0.00570273396124226
aF-0.02205540290630776
aF0.007564969091233349
aF-0.008168768569996411
aF-0.015602039916270008
aF-0.015832325104528543
aF-0.022037497586704643
aF-0.018874718749598632
aF0.0006059852616857322
aF0.0006366109053504267
aF0.006229248516735289
aF0.0045860944442697536
aF0.013737503296619932
aF0.018752289124535314
aF0.033446947769600756
aF0.03256231192886174
aF0.011272104293065154
aF0.03350724024469286
aF0.018842129437923395
aF0.061924095540545045
aF0.03802510172136381
aF0.06686004998091188
aF0.04442735420986695
aF0.032302660385149416
aF0.007174752094310118
aF0.029084976622091703
aF0.03244119215189122
aF0.012312674243356258
aF0.010533209236544152
aF-0.0006330975282449874
aF0.00037612380229311553
aF0.0035709278506053216
aF0.004545480399725338
aF-0.004608651596483225
aF-0.017239649599341163
aF-0.00043060809126142314
aF-0.00409843288120919
aF-0.0097717226604204
aF-0.0009712715675303578
aF-0.006495739189548553
aF-0.007730778842846025
aF-0.011892205097475331
aF-0.01035023709965251
aF-0.015399773681827274
aF-0.027143184569158117
aF-0.008369188506917678
aF-0.03707805657427136
aF-0.03275141350917593
aF-0.027484470463630357
aF-0.026338150019320158
aF-0.03863975410636191
aF-0.01957550662761882
aF-0.024680898227364138
aF-0.020055540011873832
aF-0.025083784888873507
aF-0.005066460056095966
aF-0.008493756827002076
aF0.0004192071223769332
aF0.006027401796408504
aF0.006807727995179013
aF0.005024935182196016
aF-0.004977331576337795
aF0.0010362883219886773
aF0.004665664027286201
aF0.010463398365363296
aF0.0062306781583913
aF0.004182437000874848
aF0.009931843976679419
aF0.010154297898709086
aF0.010554429631108692
aF0.010833651751967821
aF0.00947832516279633
aF0.004710583944576658
aF0.015490559774994085
aF0.016605972547391958
aF0.01217060232317281
aF0.006062810511789385
aF0.005579229532157759
aF0.0023207724848949463
aF-0.004368577823113726
aF0.005885702655506792
aF0.004655894467932226
aF0.004625892151006899
aF0.0044904172593349225
aF0.0010580208583087865
aF-0.001250702856012745
aF0.0039198678876829485
aF-0.0029226801135325566
aF-0.003068742031224083
aF-0.0004174152421931402
aF0.006235780805804607
aF0.0016831975718958401
aF0.005633538080442729
aF0.010315533960133608
aF0.006769502060018434
aF0.015232425501141395
aF0.0023506429752243687
aF0.005875325809204137
aF-0.001631718098596325
aF0.009282196298863649
aF0.0038300167143289665
aF0.011408075445234974
aF0.004009977829667905
aF0.003926911994664119
aF0.001247445045698397
aF0.0009743835442387926
aF0.006949789001101193
aF0.007307217940125185
aF0.010805702729975554
aF0.0013990749028855063
aF0.00914871487301081
aF-0.007706537433766005
aF-0.003705724758592485
aF-0.02699888604952616
aF-0.021049051833513157
aF-0.06186512560908043
aF-0.05067029135714181
aF-0.01912279142138893
aF-0.03009979472804533
aF-0.04423788447320264
aF-0.037169052923863
aF-0.01756428879749449
aF-0.018980913230092405
aF-0.03158759353418446
aF-0.021321719265308473
aF-0.02229126414248902
aF-0.025862289913667853
aF-0.020880161546465253
aF-0.016325832983325933
aF-0.013995510462973334
aF-0.014770001826401305
aF-0.020579004915595417
aF-0.01950627205298885
aF-0.02703188009293958
aF-0.020443331343704674
aF-0.017762521282535595
aF-0.011011778115612679
aF-0.013550975185220027
aF0.00015347241883182305
aF-0.021026385039920152
aF-0.00547274805307848
aF-0.00687898313189068
aF0.004874592780178577
aF0.016402870152670963
aF-0.006637549157713139
aF0.013405631087666766
aF-0.0022620027699918146
aF-0.006486147917737355
aF0.005392670118261209
aF-0.028038294845916637
aF0.001274013709884625
aF-0.002530236375673805
aF0.013137070407137583
aF0.03560023705000138
aF0.03206129925067063
aF0.04275774973604387
aF0.00878448519886886
aF0.04813295448252043
aF0.05382398170655493
aF0.03161212577119083
aF0.023102696656247458
aF0.005734418523743506
aF0.03739713456985443
aF0.055392967062511185
aF0.06988142435977832
aF0.06761607347051744
aF0.06113475062916175
aF0.034290392454493224
aF0.03248223402097004
aF-0.00828097691794762
aF0.0006599329550115212
aF0.005998574388164926
aF0.022613419600334462
aF-0.012848085151943198
aF-0.02438986446858674
aF0.004814212090981503
aF-0.007449028090535798
aF-0.013156681130240114
aF-0.0008491179078946421
aF-0.017751291175442125
aF-0.038059737480393145
aF-0.029491891291644166
aF-0.03959676089182626
aF-0.03183966525385723
aF-0.028980809088456596
aF-0.02749344142684897
aF-0.0609259692362274
aF-0.0506011445289657
aF-0.028912378115574826
aF-0.01290559601886673
aF-0.012028490780305922
aF-0.03317422762047424
aF-0.020287845835357154
aF-0.03999706483583098
aF-0.034238477773795545
aF-0.021374228052098723
aF-0.04743764435347154
aF-0.023423412796938898
aF-0.031095762759414516
aF-0.051664908691126034
aF-0.03832974884148505
aF-0.050379146567711384
aF-0.05595439318470137
aF-0.013057235425702855
aF-0.04640432236400077
aF-0.03575859396270593
aF-0.03959513146981466
aF-0.0341452108898497
aF-0.046678404442982546
aF-0.042098432654170084
aF-0.02216480602144766
aF-0.04892350478237927
aF-0.023752464245171072
aF-0.05801331772935606
aF-0.03792947917889666
aF-0.05889305457199559
aF-0.04368038990550544
aF-0.06654137080492752
aF-0.06286433456741951
aF-0.07416795547916763
aF-0.049278573281762064
aF-0.08349498689055238
aF-0.061954465063665656
aF-0.043188160325436334
aF-0.040384421543384126
aF-0.025306912648303072
aF-0.02440079837904178
aF-0.03141065549986188
aF-0.022739219422109713
aF-0.013883686631983354
aF-0.03664090746021568
aF-0.0439055496157267
aF-0.003399971616532258
aF-0.037312291247148396
aF-0.02614808151064763
aF-0.04986874258403056
aF-0.031857889816296614
aF-0.01018222987197719
aF-0.033244626575159204
aF-0.04099744939496769
aF-0.038524122777086243
aF-0.005194567634285251
aF-0.03566331219590325
aF-0.031081714817007975
aF-0.016896431833251433
aF-0.011562515832080669
aF-0.032968412227548705
aF-0.031095725151505115
aF-0.03320481701664215
aF-0.01211101292514534
aF-0.016697614397847806
aF-0.011540492419881648
aF0.003910894634364531
aF0.005188822933747584
aF-0.01996357517725788
aF-0.0018184463476279599
aF-0.0038372665203147732
aF-0.013749529450540875
aF0.012333119381869909
aF-0.020378817705388023
aF-0.006260233762417411
aF-0.0016701107462389962
aF0.004531535588835917
aF0.005197552395576711
aF0.015291233030133694
aF0.025060526855838112
aF-0.007694894854027786
aF0.029915055915071626
aF0.003656844010182481
aF0.017576639945804665
aF0.013054144967844048
aF0.010756634081800593
aF0.04564674735481499
aF-0.006782148865115709
aF0.03214602873318814
aF0.030998707960203292
aF0.03882127216034624
aF0.022725718013231335
aF0.03381716891060993
aF0.046997070733753504
aF0.010554406362714763
aF0.0034855484777440325
aF-0.009679431574398264
aF-0.012868724542290355
aF0.02061371623289781
aF0.011688974007104697
aF0.030155055820928752
aF0.02534686859758331
aF0.004903911028212182
aF0.031242805746816503
aF0.009196854974363193
aF0.04181159167397742
aF-0.010205414200269379
aF0.010914583217035919
aF-0.00829463675542686
aF0.008095321613854251
aF0.03883375174859399
aF0.018939234785831417
aF0.01791948497794961
aF0.029036990559079868
aF-0.00015382324125238128
aF0.005458732701800925
aF-0.015087477214197625
aF-0.004780604907863497
aF-0.00559338483467133
aF0.024899257212636854
aF0.01783544967626399
aF0.050695132023359964
aF0.0024798539462212252
aF0.035750580223482306
aF0.05678316764307786
aF0.022689693449692044
aF0.020532507971589082
aF-0.004625768992994437
aF0.03040085815318601
aF0.04319214254999987
aF0.019884715090018164
aF0.018272434595904767
aF-0.05660117843787085
aF-0.029771895194614283
aF-0.002738904670596449
aF-0.004237627532120381
aF-0.0017647570249577017
aF0.007041766563288532
aF-0.03105209941082849
aF-0.04176319218726711
aF-0.01616603793921442
aF-0.03539195320968881
aF-0.03078694001545964
aF-0.00904245495115114
aF0.007972510507635675
aF-0.04921789342397989
aF-0.04405004706989878
aF-0.04477191512523432
aF-0.03795650821594992
aF-0.035876411922963695
aF-0.025835564689186342
aF-0.005033229087587392
aF-0.04869985707005203
aF-0.025711463287957953
aF-0.040976230216071934
aF-0.0699575846556174
aF-0.06320364717522652
aF-0.06323461563648324
aF-0.0351703935761269
aF-0.0366317270520664
aF-0.019465776330379093
aF-0.06306932149992471
aF-0.04860454230246551
aF-0.0983902780213636
aF-0.10372300456525091
aF-0.06313020068813674
aF-0.12261314919913015
aF-0.08195390551152368
aF-0.019872727530100994
aF-0.06600894096729064
aF-0.047403085476195206
aF-0.07330471498193222
aF-0.054644636098426895
aF-0.0717160491569974
aF-0.05610042462343057
aF-0.04340296687984564
aF-0.058398728571582674
aF-0.033011289213879316
aF-0.02827458210138628
aF-0.029752723739620866
aF0.004383887815813877
aF-0.010280039545601397
aF-0.029223909610319416
aF0.024202435890433114
aF0.014518650916144665
aF0.04075813601305678
aF0.026451956224316533
aF-0.008896934800679957
aF0.04765054695730915
aF0.003179708163012145
aF0.009813950081865126
aF-0.050035705645160765
aF0.032079321842035845
aF-0.04300414867791032
aF-0.018849493942046477
aF-0.00792023855302851
aF-0.004141194538306207
aF-0.019385330188396693
aF-0.011199594007981695
aF-0.019683694693475258
aF-0.02770517343089067
aF-0.01712613407543077
aF0.0013095186940278469
aF0.00514854747171245
aF-0.003370988634847139
aF0.013828048574150686
aF-0.0025633957887985026
aF-0.0034680009063837326
aF0.03591193690420087
aF0.005457681440050922
aa(lp21
F0.0004643121968560628
aF0.0003844529859346565
aF0.0009090232451864499
aF0.0004912382581552354
aF0.0005371548473298604
aF0.0005087776432131437
aF0.0009247706221855305
aF0.0006491185086562028
aF0.00043186096207314874
aF0.0008604201120304765
aF0.0007679025030121247
aF0.0002482301339796803
aF0.00030643660789130223
aF-3.766047992764475e-06
aF-0.00019012929460400027
aF0.000672966264029613
aF0.0003109028801886367
aF0.00098921000686525
aF0.0005504999643858222
aF0.0002624950288987698
aF-0.0005252097250581783
aF-0.0010045228825828225
aF-0.00038790167088199174
aF0.00126470783438635
aF0.0012866447932654917
aF0.0011773942683990085
aF0.0009121905442590571
aF0.0009762620147121657
aF0.0010917453584520437
aF0.0014935875165553395
aF0.0009282586464050851
aF-0.00026799342436260496
aF0.0010498569629705096
aF0.001717653661756006
aF0.002669833152088871
aF0.0028705186707266464
aF0.0014562288563132054
aF0.001247497313088459
aF0.0013532772361242937
aF0.003411629812629305
aF0.001950769491303698
aF0.0032135391454667216
aF-5.6800534417265674e-05
aF0.0014151646680974036
aF0.0015727565908962334
aF0.003128373812670644
aF0.0023486646848632775
aF0.00019167402191367115
aF0.00016030800150582095
aF-0.00038918698628316925
aF0.001596591163499413
aF0.000809996137694427
aF-0.0003159306480038408
aF0.00011313623447731657
aF0.0004965552533817095
aF0.0005152462533296885
aF0.0007380201723812502
aF-0.00010399697660509729
aF-0.0005532933182199835
aF-0.00022860163965266798
aF-0.00021418717584751313
aF-0.001775759301846028
aF-0.0003709764925351683
aF-0.0009232455344254114
aF0.0012156421010013684
aF0.0012479145218505035
aF0.00010615656705310295
aF-4.285171537614806e-05
aF0.00032061120293438387
aF-1.5298256802084245e-05
aF0.0011563294036840957
aF0.0003712056965082144
aF0.0012963736428000627
aF-7.249638146566832e-05
aF0.0006851820592698115
aF0.0013428464848983552
aF0.0014916394055528473
aF0.0007492845558281297
aF0.0007047525919474592
aF-0.0001721009530776916
aF0.00105253637564657
aF0.00209011275488785
aF0.0007682382947430819
aF0.0017412496619972578
aF0.0004661263235471751
aF0.0010380251485642656
aF0.00010602712569219724
aF0.0011058224259990238
aF0.001826302860545437
aF-0.0002692154959519058
aF0.0010970447980081126
aF0.0009195660422489705
aF0.0014490903740784487
aF0.001238214894109472
aF0.0012691437055779178
aF0.0008505800001835401
aF0.0008762640555467564
aF0.00025407644432211664
aF0.001443081766097908
aF-0.0004221927922023967
aF0.0011757992646634695
aF0.0019185879893764987
aF0.003089631524931545
aF0.0009056312408287254
aF-0.00022823022503946536
aF0.0008263769084970653
aF0.0009740892139197396
aF0.0014940536596102442
aF0.0009021737876763681
aF0.0028405763740516924
aF0.0018948983737638572
aF0.006380533032654506
aF0.005213180368674202
aF-0.0011501686220600142
aF-0.007152363444097277
aF-0.0011377341878930324
aF-0.007083694003065
aF-0.017499206882837463
aF0.0027714830238974304
aF-0.007513543109256711
aF-0.013207610739219524
aF-0.012102471966709102
aF-0.016660281715004166
aF-0.01523239517485848
aF-0.002467021147405073
aF-0.003355991729186081
aF-0.0002469885480769482
aF0.0004993116790983972
aF0.0030210050317657873
aF0.007333400991973215
aF0.016323631952093694
aF0.013844706435499067
aF0.002227633719321614
aF0.01540231521468866
aF0.007888278850199283
aF0.030669855768187454
aF0.017730299130052793
aF0.03373167019895423
aF0.02297621793713912
aF0.01640390757126491
aF0.00018937552375598973
aF0.013384048945030697
aF0.015548932119313968
aF0.0034355712700906717
aF0.004043378141772628
aF-0.002748732741668573
aF-0.002450067616080953
aF-0.0007833738857706413
aF0.000601772224098403
aF-0.005178697451720718
aF-0.013354488540099938
aF-0.0016117460579503286
aF-0.004369911904487126
aF-0.008019297305769637
aF-0.0019765489013986873
aF-0.005980831904236261
aF-0.006228195050299034
aF-0.009527919834253724
aF-0.008180569459624185
aF-0.01146132671711217
aF-0.019976532960095023
aF-0.006977546246083302
aF-0.026637887918530497
aF-0.02385104296029358
aF-0.020291937927478215
aF-0.019145251910475346
aF-0.027548990659510622
aF-0.014399590567156588
aF-0.01772108366890664
aF-0.014395796328471136
aF-0.018305338066715575
aF-0.004894729431162665
aF-0.007228224623212953
aF-0.0016397884600945366
aF0.0021876653244866403
aF0.0028171794375519577
aF0.0017169066987081287
aF-0.004449116161422165
aF-0.0007207438335365252
aF0.0015263848419574365
aF0.00490310567491111
aF0.002402918827969481
aF0.0016838090853790748
aF0.004799896783560096
aF0.00486124988978868
aF0.005111980341975044
aF0.005192037702621188
aF0.00447708611090861
aF0.0018015541845139223
aF0.008483777243193068
aF0.008812950186246133
aF0.006529710802328394
aF0.0025440834171810986
aF0.0025921161395170973
aF0.0007031883523566728
aF-0.0036280703638221757
aF0.002565706107447639
aF0.0017901153189081361
aF0.0021202514567622128
aF0.0013947212792161912
aF-0.00038389573130549417
aF-0.0019369873407287417
aF0.0014962146506579041
aF-0.0027791722474985025
aF-0.0030580450046236328
aF-0.0012260252854062134
aF0.003060428152180803
aF0.00023685908332906025
aF0.002667083749697234
aF0.005452234446931376
aF0.0030485767396907903
aF0.00823172173883414
aF0.00027275658797192286
aF0.0023855208940902098
aF-0.0015961092270334292
aF0.004872654433373972
aF0.0012985570435774649
aF0.005818681466756785
aF0.0013899585169540039
aF0.0010300151309149122
aF-0.0003474406214854836
aF-0.0002716102604664394
aF0.00292848342270348
aF0.0036102769409976664
aF0.005120267624342985
aF-8.985168537128108e-05
aF0.004484566616334252
aF-0.006122161248831163
aF-0.003931058886121658
aF-0.019455827417397133
aF-0.01567633003231975
aF-0.0434302365741467
aF-0.0363971622933595
aF-0.014965503070105532
aF-0.022612614513659254
aF-0.03281589666027385
aF-0.02695704010977242
aF-0.013177246140737762
aF-0.014797582659833181
aF-0.022946562632253593
aF-0.016631661344601516
aF-0.016575070558025012
aF-0.020305083825897022
aF-0.015497287268820147
aF-0.013199213107372083
aF-0.011193123650597906
aF-0.011656547993828092
aF-0.015092422233605012
aF-0.014573563614352008
aF-0.01959871638155617
aF-0.01503625989482742
aF-0.013851579557752023
aF-0.009214477987387431
aF-0.011482443344654609
aF-0.0031776265672193525
aF-0.016469068976994537
aF-0.007174164415462426
aF-0.007270188477785894
aF0.00035566066795130374
aF0.00662328937076636
aF-0.00783189961993535
aF0.0042414988078774
aF-0.00417219864621199
aF-0.008011898151018337
aF0.00017798835044322223
aF-0.02152007605922383
aF-0.003966762803913145
aF-0.00556245288247088
aF0.0023659041123280733
aF0.017095598789028506
aF0.015208019357450748
aF0.021078506320166987
aF0.00045296560059553766
aF0.023948237205618086
aF0.02870427676638662
aF0.014301965459794909
aF0.009098400742983974
aF-0.0014652723935734673
aF0.019033090314827732
aF0.028420972335777193
aF0.036295135160586744
aF0.03428814233804719
aF0.030517491749174834
aF0.015052522782803179
aF0.015295983782624548
aF-0.009768160754882281
aF-0.005419308963213659
aF-0.002662167668317753
aF0.009726971008458984
aF-0.012984279124362575
aF-0.02074409517958473
aF-0.002047406258578421
aF-0.00961442257179373
aF-0.012348893051131725
aF-0.0031784089732366573
aF-0.014093808829418814
aF-0.029142686485201064
aF-0.02229940128094654
aF-0.03000370798303548
aF-0.025404517220999193
aF-0.022502544513730505
aF-0.021966096510370185
aF-0.04408584433679498
aF-0.036637118599198354
aF-0.022653022801679464
aF-0.011688426381304027
aF-0.010101446762206675
aF-0.025954657796346262
aF-0.017503589964001247
aF-0.02942306143841272
aF-0.027607261771075288
aF-0.018084104349624503
aF-0.03502926458239442
aF-0.02033659148618057
aF-0.024689366821110472
aF-0.03767019949929154
aF-0.030120362738598413
aF-0.03745674629798481
aF-0.04098966515598042
aF-0.012372987497628536
aF-0.034149604635735686
aF-0.026914357747366512
aF-0.029854584718734735
aF-0.025435063189029886
aF-0.03352696205206913
aF-0.03091804264177569
aF-0.01753866195547472
aF-0.03497962769578015
aF-0.018392388198122694
aF-0.04217583491315507
aF-0.028248671598434628
aF-0.04275210090797724
aF-0.03243050595322116
aF-0.04818224517355836
aF-0.04548324520585728
aF-0.05313368610059479
aF-0.03578578464359039
aF-0.05958803478201607
aF-0.04456463018770041
aF-0.031677377789940335
aF-0.029902405422791597
aF-0.019092667570672222
aF-0.018733918392904003
aF-0.023912118159834163
aF-0.018013678498426715
aF-0.012952331992773312
aF-0.02805948895712737
aF-0.03333454327048359
aF-0.004695204981911265
aF-0.027611642020794764
aF-0.019875848071906878
aF-0.035250066260625865
aF-0.024083678029174906
aF-0.00823185667450062
aF-0.02436419576221965
aF-0.02984454322572048
aF-0.02774096586920434
aF-0.004870694638499153
aF-0.026234325181499873
aF-0.023341212896853498
aF-0.01303164800396566
aF-0.009833584550895103
aF-0.023851083112585544
aF-0.02335361846053708
aF-0.02473094508878936
aF-0.01094916865062535
aF-0.013919146812986753
aF-0.011975073732592063
aF-7.939998900500866e-05
aF-0.0007903040073144096
aF-0.016864812793643755
aF-0.003781465870399822
aF-0.005374416800870624
aF-0.01121182361272154
aF0.005854347449947721
aF-0.01558695252133524
aF-0.006517770429298444
aF-0.0032323566109353197
aF-0.000916742406790689
aF-0.00013576326974308123
aF0.006355924068676518
aF0.011796027355082521
aF-0.007879979310710085
aF0.01413692298779463
aF-0.0012140786005753138
aF0.005718844635320963
aF0.003007296860997637
aF0.0026794424510985793
aF0.023919172635794166
aF-0.008036295341822063
aF0.013641301677721955
aF0.015185635904559463
aF0.018596352622421715
aF0.007408957509218053
aF0.015350236731816392
aF0.02334730310059615
aF0.001626076274232359
aF-0.002960432398361211
aF-0.011618933885632407
aF-0.012918688621735029
aF0.006566757930794576
aF0.002409108606652228
aF0.012561214923712516
aF0.009800606467572826
aF-0.0027761836994488046
aF0.012943568869490834
aF0.0010213314090116972
aF0.021497728808436846
aF-0.012202886801293928
aF0.002559185655766984
aF-0.010570536955609207
aF0.000672465796276188
aF0.018235227502905082
aF0.005087713278784006
aF0.003155472961139972
aF0.012562942239916617
aF-0.004802838748824515
aF-0.0007891634585275852
aF-0.014618435338636666
aF-0.008469976962325283
aF-0.010361018463585295
aF0.006984833502598458
aF0.002193982095276124
aF0.024302933856543592
aF-0.004956919171545466
aF0.015165179542880694
aF0.027358383798144634
aF0.007987449898776965
aF0.006375781301893352
aF-0.007353678872446655
aF0.012471196033476436
aF0.018450993797209544
aF0.0033980119033110824
aF0.004602337104874798
aF-0.04330020838541188
aF-0.024444384818724275
aF-0.005440932732533816
aF-0.007420595250058404
aF-0.005945837090651411
aF0.00027723701644952084
aF-0.025632469041644172
aF-0.031134065747973127
aF-0.014530124785505775
aF-0.030058414479024558
aF-0.028354468556307154
aF-0.014549680868258814
aF-0.0005701247872486558
aF-0.03896088940420439
aF-0.033227068829683674
aF-0.03330175535064328
aF-0.03005358658704136
aF-0.029596345703441277
aF-0.023427482582064143
aF-0.007859675352953526
aF-0.03702368008963018
aF-0.019682741388014107
aF-0.03068795804272946
aF-0.05124772364137232
aF-0.04618352033059982
aF-0.04545939513919236
aF-0.027193930095951266
aF-0.02884357392597612
aF-0.0169330616193097
aF-0.04634269252326455
aF-0.03757607754606581
aF-0.07322751408819607
aF-0.07476112522120107
aF-0.046932848532796646
aF-0.08730470612603164
aF-0.06014612933012833
aF-0.01773472278530277
aF-0.048568413085167565
aF-0.036797036132293265
aF-0.053985652226942946
aF-0.04053842856927227
aF-0.05290716603129161
aF-0.04236062319618724
aF-0.033537855058049716
aF-0.043388181540939236
aF-0.02563895226363592
aF-0.022132082098668855
aF-0.02370516409265113
aF0.00030495214520992713
aF-0.012441623823337349
aF-0.025485874016161262
aF0.008876707951725786
aF0.0014812169282432117
aF0.019787521680717984
aF0.010327723674601235
aF-0.01314234173312105
aF0.02386899012893714
aF-0.0023970930092288216
aF0.0004701813115375638
aF-0.037222004744437896
aF0.0162765118833568
aF-0.0334391493000344
aF-0.018740424148365263
aF-0.008558466722351644
aF-0.007351852841695613
aF-0.017310896095986635
aF-0.012554050804445849
aF-0.01706685372518304
aF-0.02445373975370929
aF-0.015241282466852746
aF-0.0026831332569131764
aF-0.00277108414814718
aF-0.007296683055338195
aF0.0015849890087240785
aF-0.009262939883176401
aF-0.007595302732925655
aF0.015439750353078804
aF-0.00038583462832563115
aa(lp22
F0.003892708448934454
aF0.0025378729468074203
aF0.004769330203652075
aF0.0028304913884821237
aF0.003521368809890418
aF0.003213847084300359
aF0.005011329514829057
aF0.004125254351121716
aF0.003254411931444056
aF0.005167736339077573
aF0.004333341261661779
aF0.0030537896038124917
aF0.0018767046077208624
aF0.001674434965618353
aF0.000498597095898874
aF0.004540167827047434
aF0.003165731944758357
aF0.005708328596963957
aF0.0033950587718910535
aF0.0024956017529346062
aF-0.0004387986688049026
aF-0.0017658548391525628
aF0.0005408542653398202
aF0.006729243061531941
aF0.006584389014230618
aF0.006506885444661579
aF0.004868651451622657
aF0.005936525013437498
aF0.00605155152070004
aF0.007847046611294869
aF0.0053398788276829996
aF0.0010876283841151032
aF0.0056341551958039165
aF0.00915428137585678
aF0.012424642515640615
aF0.014003986949528396
aF0.007734659265811833
aF0.007536662100541723
aF0.007725183692625368
aF0.016702152436467593
aF0.01066173675880373
aF0.01536009187437112
aF0.002306079037709128
aF0.007683361922800061
aF0.009304043517707623
aF0.015149767982245177
aF0.01165469501954327
aF0.003453293455354975
aF0.002253486315225794
aF0.0012637146792584262
aF0.008338697126427815
aF0.005388699432047174
aF0.0009734614078062264
aF0.0015842793174163355
aF0.0032867782323310253
aF0.003824363737727351
aF0.004834335018203466
aF0.0012757901334987597
aF-0.00024484325052887994
aF0.00048021436284595095
aF0.0009837107141669715
aF-0.004201818251402151
aF-9.642517452484492e-05
aF-0.0004572827887896719
aF0.007078256783985207
aF0.006881790580110199
aF0.0029552896329840526
aF0.0017988881500939043
aF0.0038737199093104493
aF0.0025806471302049867
aF0.007697629006991888
aF0.004633318452947322
aF0.007110965421798859
aF0.0029449253937752786
aF0.004944112549498313
aF0.007727662605902943
aF0.007661808769060505
aF0.005602615328106143
aF0.0038194180728935516
aF0.0022205790908832903
aF0.005993049074448174
aF0.01111677185456958
aF0.005701279917905207
aF0.009637688337052693
aF0.0032242742948428308
aF0.006345257181248354
aF0.002472706253869024
aF0.007191182732812213
aF0.00922338946705705
aF0.002804255404459387
aF0.007018929635324682
aF0.006356917509302152
aF0.008393364683990453
aF0.00708127884178693
aF0.007149666961579997
aF0.006415024652950691
aF0.006824199214810497
aF0.004883252952063022
aF0.008693950329473609
aF0.0015171696416059115
aF0.0072756090127849326
aF0.011285531772300338
aF0.016536262917951638
aF0.006619085426700709
aF0.002088811612042791
aF0.0053017699062465964
aF0.007182847304224447
aF0.009409938901832332
aF0.00715441361434709
aF0.01569566478102975
aF0.012814188153345825
aF0.03146921955040811
aF0.02825354173064257
aF0.00954308086250335
aF-0.010519651515578873
aF0.010815510056321755
aF0.0005163840948892168
aF-0.038665674483522046
aF0.027490929530540276
aF-0.009544176494394018
aF-0.024393007066333627
aF-0.030421049597781056
aF-0.04303217840957143
aF-0.03277270072634474
aF0.011325030079030572
aF0.015641586450786785
aF0.03266978259924264
aF0.018663409234697358
aF0.058944631703203146
aF0.06384846631927721
aF0.10345258652345377
aF0.10820497995402771
aF0.047027529263682956
aF0.10688457950292317
aF0.056688915968247044
aF0.17805939294453305
aF0.1061630628135686
aF0.18749807420047626
aF0.11993281312205588
aF0.09276719376230998
aF0.03033689893894397
aF0.08215401095705788
aF0.08793620899991905
aF0.03922013294764878
aF0.03171326156495812
aF0.004649245724376397
aF0.007183511288070461
aF0.01650841601973401
aF0.01662612972824605
aF-0.0048154264636651204
aF-0.03311651100868643
aF0.0029528673987922623
aF-0.0040065497349408095
aF-0.017276136897892935
aF0.0022507553182194388
aF-0.009124580480399762
aF-0.014817993444529408
aF-0.02114557147120092
aF-0.019034266797128115
aF-0.03035432484259729
aF-0.053843445051959635
aF-0.01481880323838962
aF-0.07686151978005604
aF-0.06687459496415757
aF-0.055474295255585504
aF-0.054426371288798195
aF-0.08022444444999545
aF-0.03976516453596175
aF-0.05164586293661244
aF-0.04163858912225817
aF-0.05065242230908307
aF-0.00669896192097224
aF-0.01470902126646239
aF0.006696518244444008
aF0.018244648601411447
aF0.01943845241384376
aF0.015902444233396217
aF-0.007765978704364303
aF0.006798126483563782
aF0.014303764193135258
aF0.02994936517903313
aF0.019796936304023724
aF0.012571616894538427
aF0.028533674436151877
aF0.0285530674423824
aF0.02876800461219981
aF0.030418724497686005
aF0.027783403563199346
aF0.015600752056834677
aF0.04112348253442206
aF0.045527206827756905
aF0.032503825343759646
aF0.0191317492836229
aF0.017275260100950887
aF0.00902514766174067
aF-0.007266580358383603
aF0.01876770720202116
aF0.015442791595131391
aF0.013507667831906173
aF0.016626204542744407
aF0.0062466850041780495
aF0.0011650140789030046
aF0.012953797364637403
aF-0.004078368241617793
aF-0.003443235288802572
aF0.002297537035947965
aF0.018047301565595628
aF0.006680889205876149
aF0.017014243461942514
aF0.028346793488132006
aF0.019794642807513096
aF0.04103666212865394
aF0.009013637230922007
aF0.018945204105847175
aF-0.0016054405456882531
aF0.02618765065440754
aF0.012849938179870572
aF0.03251510995111658
aF0.013676747350081035
aF0.015487411009452752
aF0.0073726613155515154
aF0.005803916968094856
aF0.022720595765877424
aF0.02092636911065876
aF0.03355956513362224
aF0.007534340905558744
aF0.02825290318576829
aF-0.013189940029361368
aF-0.00299768975928591
aF-0.05631839820300186
aF-0.04028559471250675
aF-0.13146288246651006
aF-0.10398111547622851
aF-0.03430386193827525
aF-0.058683015745446106
aF-0.08559981696963678
aF-0.0757249762610411
aF-0.03347482807799581
aF-0.03323967980390174
aF-0.06376826659316492
aF-0.038115507348565135
aF-0.043770893688869814
aF-0.046222238657227736
aF-0.04166859713531525
aF-0.02797303402633293
aF-0.0253103095804987
aF-0.02726821942965103
aF-0.04154823572743573
aF-0.03831410208538515
aF-0.054920081826380696
aF-0.04192267406733598
aF-0.032467262419576995
aF-0.017162251601824895
aF-0.02103055854602918
aF0.014995927664709906
aF-0.03813581380677618
aF0.004922334107705502
aF-0.003951428495037582
aF0.024630853342138187
aF0.055559720057918656
aF-0.002071028281050551
aF0.05001728144942604
aF0.0038249210250088177
aF0.0009181383275465207
aF0.026287781465497168
aF-0.05266034775657484
aF0.02277330277786429
aF0.00765612371573187
aF0.053963722326507826
aF0.1051565838152411
aF0.09444000738784454
aF0.1252480988101617
aF0.035184168238483936
aF0.13687607830642215
aF0.14208648700416404
aF0.08991637264485866
aF0.07173716094142152
aF0.03170265506626223
aF0.10296966790775744
aF0.1520237071612815
aF0.1870259081140446
aF0.17885278966243695
aF0.16319875896247363
aF0.0956759668480514
aF0.09039392087832628
aF-0.005406403334273187
aF0.01593017772902469
aF0.03030653584165449
aF0.06481031089869138
aF-0.015053743002618218
aF-0.04266689458021396
aF0.024450281662979242
aF-0.005791593812014134
aF-0.018869908923122708
aF0.008115893787782815
aF-0.033334425098251956
aF-0.07297160563550913
aF-0.05978213403946872
aF-0.07864186933131
aF-0.059232022977430805
aF-0.057144840238202085
aF-0.04898097812607711
aF-0.1236554691075934
aF-0.10351799383105986
aF-0.052590331579812404
aF-0.016924608887637468
aF-0.020660800029962543
aF-0.05862460736612032
aF-0.030558732755600972
aF-0.08202258784667105
aF-0.05755806870890378
aF-0.03222738305756364
aF-0.09327737988624882
aF-0.03284286609949125
aF-0.053879952435956266
aF-0.10462754535289691
aF-0.06705906444787324
aF-0.09859573256208749
aF-0.11226335690519583
aF-0.015056030793377398
aF-0.09338225893710675
aF-0.07049319946515768
aF-0.07608669567416579
aF-0.06683012870241935
aF-0.09621455714542837
aF-0.08340234915641068
aF-0.03898194988565012
aF-0.10099417454057401
aF-0.042927001420026256
aF-0.11709269951545473
aF-0.0753863743266541
aF-0.11991067330711222
aF-0.0877331475046745
aF-0.1380240044326358
aF-0.13012049909188983
aF-0.15464129838355736
aF-0.10202093686136135
aF-0.17304554190980573
aF-0.1280710482844552
aF-0.08797751984342542
aF-0.0807805057385822
aF-0.04983346796085824
aF-0.04678189768420393
aF-0.0599135163546046
aF-0.04373907560637576
aF-0.018814892088634117
aF-0.06949517317626924
aF-0.08385328917311022
aF0.0014143116273618499
aF-0.07337631921206503
aF-0.04890703155207131
aF-0.10656658803021181
aF-0.060349590690771844
aF-0.017207401533917574
aF-0.0673843029302403
aF-0.08209944302982601
aF-0.07913548158196185
aF-0.005499203263466711
aF-0.0722038452450552
aF-0.0601245006704429
aF-0.03134596538306023
aF-0.01860009175495876
aF-0.0688720380651853
aF-0.059185370729219665
aF-0.06506889807061905
aF-0.015090971728807617
aF-0.027749811611114963
aF-0.008156717158110238
aF0.01871452869029427
aF0.030616357729912363
aF-0.030947705196578967
aF0.007945027403454864
aF0.005233919294190512
aF-0.022645967854594645
aF0.037500735046280105
aF-0.03933850941731572
aF-0.006436190339189744
aF0.003279445079977711
aF0.02733833563579458
aF0.026889487932921164
aF0.05148879738894386
aF0.08095443012448715
aF-0.0070958487281993395
aF0.09675384376458238
aF0.02519966672911569
aF0.06928596277526161
aF0.05630643772319134
aF0.04569434708525208
aF0.13600918307354012
aF-0.0031121849566991266
aF0.10948202667424352
aF0.0920581818052477
aF0.11899679404973602
aF0.08262718525906705
aF0.10427448664003904
aF0.14065930769495047
aF0.044735693960525125
aF0.03176527919210499
aF-3.907900872246913e-05
aF-0.012827648164938513
aF0.07450274403440849
aF0.04404304859805411
aF0.09581531269177582
aF0.08162719914731047
aF0.031104685362708488
aF0.0995500835444034
aF0.03726047140912414
aF0.11567488702410064
aF-0.005653700247473309
aF0.04007223208671107
aF-0.00023803278272568928
aF0.033584420124975985
aF0.11210658326246477
aF0.0633784525425578
aF0.06715356094389884
aF0.0859005004320066
aF0.01283211052033406
aF0.025996483901010715
aF-0.018496544525820564
aF0.005571004796689323
aF0.008584990411206262
aF0.08305882100417408
aF0.06252897209175745
aF0.13909484324176594
aF0.024329522600151393
aF0.10276534962538666
aF0.15728917158831895
aF0.0677654319252945
aF0.06858937106916517
aF0.0022456085603056266
aF0.08711320941199503
aF0.1198305568318218
aF0.06518410535545123
aF0.05888601023209243
aF-0.11153271913361876
aF-0.05430739202871213
aF0.0032057651347749427
aF0.0026357094832251842
aF0.00875362594553606
aF0.02684313763197375
aF-0.05797432288686305
aF-0.08445721635982283
aF-0.02602961775370004
aF-0.05871287720568354
aF-0.047322588169294834
aF0.0053015170236462
aF0.0325120715009456
aF-0.09375859892091899
aF-0.08476632052416716
aF-0.08830601708629851
aF-0.0708215941845572
aF-0.06348363856643022
aF-0.04019201319330448
aF4.705469408578188e-05
aF-0.09497428294123256
aF-0.05079354287868459
aF-0.08186810643550778
aF-0.1428315777329057
aF-0.12870958632730653
aF-0.13533076972870928
aF-0.06900849950934147
aF-0.06818176874687047
aF-0.0336688666028628
aF-0.12709841942965908
aF-0.09584887407022613
aF-0.19834127324288173
aF-0.21562423516471033
aF-0.1265683151180484
aF-0.2557573662805495
aF-0.16713360683150827
aF-0.03141115639276013
aF-0.13523175593616454
aF-0.08945852503983516
aF-0.1477134278995012
aF-0.10694377234160009
aF-0.14254472897056505
aF-0.11066336561868172
aF-0.08232588394604264
aF-0.11661674420102994
aF-0.06168469130631885
aF-0.05282522336817066
aF-0.05387409578785891
aF0.018717497981060222
aF-0.0016723293280560016
aF-0.04568893648673416
aF0.07988018398381364
aF0.059038703718916154
aF0.11865689848953367
aF0.08767759816117023
aF0.006143686930460421
aF0.13691373827333386
aF0.021482777679649217
aF0.043994411812363
aF-0.10044128739003849
aF0.09504008137890624
aF-0.08038377659314373
aF-0.018306146242100182
aF-0.007629127408825913
aF0.007903392098473553
aF-0.02920006091177779
aF-0.003411450928037433
aF-0.0306244867433519
aF-0.040384893688127824
aF-0.023794097869264487
aF0.015863369568003424
aF0.0399788394687933
aF0.012852802025902341
aF0.06825294729027188
aF0.028277501381581572
aF0.017575256778962742
aF0.1251466055438267
aF0.02948895191199046
aa(lp23
F-0.0028050188719995796
aF-0.0018502316109650122
aF-0.0033414202826679796
aF-0.0020309692895482527
aF-0.0024634317875623668
aF-0.0022207482064839925
aF-0.0035822475429542985
aF-0.0028697950033623
aF-0.002314086990223462
aF-0.0036802742749295573
aF-0.003165873587644195
aF-0.0021232727278957964
aF-0.0013344109401324021
aF-0.0011152243954107553
aF-0.0004941934379825843
aF-0.003220289176150916
aF-0.0023552295184396995
aF-0.004162828165181134
aF-0.002580581468043743
aF-0.001891052992402743
aF0.00015830149414498867
aF0.0009019564384150938
aF-0.0006885776841909828
aF-0.00496232379566916
aF-0.004828620326753348
aF-0.004880596389431805
aF-0.0035228314213002596
aF-0.004294925243952546
aF-0.004523155187055542
aF-0.005684161222325184
aF-0.004013059999804119
aF-0.0008859714713910396
aF-0.004105984872760597
aF-0.006465363286701127
aF-0.008952081952748428
aF-0.010119067973391549
aF-0.0055733385602708095
aF-0.005375971648049395
aF-0.005657558887169841
aF-0.01195648783384593
aF-0.00782200014496921
aF-0.010989410609680431
aF-0.0018305964855291632
aF-0.005466215757208462
aF-0.006921200443201623
aF-0.010888776920083937
aF-0.008333858993481491
aF-0.0025958079538407532
aF-0.0015766894950672162
aF-0.0011997504762151759
aF-0.006059039755058783
aF-0.004062830008141218
aF-0.0007653373546553182
aF-0.0012388976041421225
aF-0.0022660065780835312
aF-0.002869317703493022
aF-0.0034040936647018565
aF-0.0009846391938928645
aF0.00022040307291624402
aF-0.00031317248243422046
aF-0.0008003362612189252
aF0.0028546798623835913
aF-5.069383260534429e-05
aF0.0003703802771256078
aF-0.005266947107291049
aF-0.0048830757192630725
aF-0.00234518203377651
aF-0.0013110194449393467
aF-0.0029865203119986278
aF-0.0020336251860245983
aF-0.00572792014554873
aF-0.0033788786559426284
aF-0.005174678060354945
aF-0.0022587654348575773
aF-0.0035816999966671393
aF-0.0055425612351659185
aF-0.0056107751932722464
aF-0.004285434122319088
aF-0.002687257198685174
aF-0.0017259884749640827
aF-0.004281636158187455
aF-0.008042645089400143
aF-0.004077823451882418
aF-0.006831635183593012
aF-0.002294275032909851
aF-0.004586183860583144
aF-0.0018993574782429309
aF-0.005160968025181169
aF-0.006562612998065618
aF-0.0021208762027677967
aF-0.004881926343301649
aF-0.004689928299551191
aF-0.006192069723107677
aF-0.005190521003425765
aF-0.00494221385354804
aF-0.004905624916933714
aF-0.005254134356495066
aF-0.003903979053810075
aF-0.006454772513612986
aF-0.0014418133575602203
aF-0.005162417243720158
aF-0.008279886659871793
aF-0.011973522486608662
aF-0.004969760340018301
aF-0.0014469909028118524
aF-0.0038370709462313382
aF-0.005212380478230653
aF-0.006710591679636229
aF-0.004990225690893071
aF-0.010862206063474
aF-0.009208294713091402
aF-0.021981165549173898
aF-0.01995479867270267
aF-0.007600323433383502
aF0.006296829085347471
aF-0.008203624123516851
aF-0.002438877599906677
aF0.024062818120090406
aF-0.019349608178459002
aF0.004607259922767223
aF0.015409579367543277
aF0.02040232681999048
aF0.029153579723233597
aF0.021059881062484558
aF-0.007401159843106969
aF-0.011634844594003074
aF-0.02532610976843257
aF-0.01434620981968343
aF-0.03987670724945735
aF-0.04642944731748484
aF-0.07271135410718617
aF-0.07536255559130382
aF-0.03416193342384218
aF-0.07493460730629684
aF-0.042859190285414815
aF-0.12505269237154856
aF-0.07927941007099618
aF-0.13763231708191573
aF-0.08809502827667705
aF-0.06677258612774685
aF-0.022409311425407055
aF-0.06101917043479236
aF-0.06393024415172735
aF-0.03184743631537517
aF-0.023812560884433762
aF-0.003908535648184694
aF-0.006473187135177671
aF-0.013708990271191858
aF-0.0124154757581145
aF0.002081611770938594
aF0.02188286369366999
aF-0.0022562123606867626
aF0.0013958195613139987
aF0.009614013609904434
aF-0.003291135300228991
aF0.004089809062364587
aF0.008662893667088023
aF0.013091943149129625
aF0.01228080752853801
aF0.02014932317829014
aF0.03460170360854383
aF0.008074654846309948
aF0.04914894487239898
aF0.04202793025308563
aF0.03408850527231041
aF0.03368627920381416
aF0.05104099314172104
aF0.024232205217608875
aF0.03222085251913546
aF0.026117607411896473
aF0.0322409979090063
aF0.0025884941570030306
aF0.00802289972650416
aF-0.0059146688286533826
aF-0.013422668001435724
aF-0.014364539385427534
aF-0.011824822598052639
aF0.005307898497876143
aF-0.004603777251902289
aF-0.01035988139648869
aF-0.021280075834780015
aF-0.014459491489663846
aF-0.009312967356432602
aF-0.020111925287822588
aF-0.020093914483915454
aF-0.020101345768695128
aF-0.021416394503198898
aF-0.0197130212437788
aF-0.01114560334181801
aF-0.02940086926151949
aF-0.032657912313023285
aF-0.023517581677778766
aF-0.01418021543012448
aF-0.012185753292990483
aF-0.006562690201976119
aF0.0040785798174481965
aF-0.013681930013038747
aF-0.011463446369523438
aF-0.009921324955318592
aF-0.011854728733767621
aF-0.00483655418935722
aF-0.0012071502056974796
aF-0.008615865525720636
aF0.002907251463822602
aF0.0020784635967711273
aF-0.0020948284899830914
aF-0.012939627524782171
aF-0.0055774284048016615
aF-0.01261303465222899
aF-0.020776664541463846
aF-0.014596029812753762
aF-0.029523889662742213
aF-0.007494805338735673
aF-0.013721314725726097
aF0.0009291024533598569
aF-0.01855228923467174
aF-0.009934028599364706
aF-0.023304782642580568
aF-0.00990592655472956
aF-0.010918342966068138
aF-0.00533108348868121
aF-0.004295873523742128
aF-0.016379286740598287
aF-0.015480576393598088
aF-0.02396313052947351
aF-0.00569746636753083
aF-0.01991027188141855
aF0.00820995158838211
aF0.0016369751229921034
aF0.03761919721304823
aF0.025283932130520086
aF0.08740998726326109
aF0.06955343925988444
aF0.02053638738579385
aF0.03484847979329064
aF0.056258109781533124
aF0.049479905998952176
aF0.02173188798767489
aF0.021985145435452685
aF0.044210880912417615
aF0.024236823238382645
aF0.028576159071994723
aF0.031185115688153266
aF0.028893604112444828
aF0.01925944468642837
aF0.01519681408670229
aF0.018126159949400783
aF0.026293524709734346
aF0.024222401553783173
aF0.03639871573280492
aF0.028512115985448293
aF0.0227060968329618
aF0.010892539255481837
aF0.013032131581177941
aF-0.012048190849727922
aF0.027371460621047606
aF-0.004607692910955862
aF0.0013071843722972246
aF-0.01651878618703289
aF-0.03695672509455435
aF-0.002797449261794762
aF-0.036098768232911964
aF-0.002114723486898696
aF-0.003104570959961432
aF-0.020454237956049472
aF0.033926683177404826
aF-0.016665919879375046
aF-0.008086719388791592
aF-0.03999487476770736
aF-0.07594619228483714
aF-0.07023437389411985
aF-0.08968183650663665
aF-0.02926902447131455
aF-0.09814454721719718
aF-0.1017275217037888
aF-0.06782480988370294
aF-0.052999308811182484
aF-0.02477451246961558
aF-0.07456635623685215
aF-0.11018750596632301
aF-0.1367749100707794
aF-0.13322357763164364
aF-0.11940002945908472
aF-0.07052309955934472
aF-0.0647100272482841
aF0.001340840716438099
aF-0.017414224775573396
aF-0.02611319615795002
aF-0.04679669776764906
aF0.009247369405334518
aF0.0280280702591091
aF-0.01836791564129359
aF0.00047019876458608803
aF0.010303725479082993
aF-0.00680274225236466
aF0.021237417739830698
aF0.047881198355677015
aF0.04127874202419136
aF0.05344967839040092
aF0.03906386638638635
aF0.039986751802039
aF0.034311112592043544
aF0.08323774954313827
aF0.06774384725730943
aF0.03315073941965173
aF0.010757010081900739
aF0.014923936094341828
aF0.039006068519659653
aF0.019824564206013598
aF0.055794508610501246
aF0.03930772194406578
aF0.02115640605268253
aF0.06267009645760427
aF0.02260466946013149
aF0.03734414988551578
aF0.07113386603946062
aF0.04540694644936958
aF0.06598959482201609
aF0.07449557198328008
aF0.009500677007835011
aF0.06190346871976599
aF0.045991835842138125
aF0.0491403980106077
aF0.04401035889878892
aF0.06322685266007926
aF0.05533118417469569
aF0.024866898127684476
aF0.06679829274022926
aF0.02701443104123525
aF0.07464454895548761
aF0.04704085793743864
aF0.07636181181635637
aF0.053585010281440144
aF0.08688247169306874
aF0.08134491428514525
aF0.09842746595833453
aF0.06406946430274962
aF0.11309014617535534
aF0.08484908163193224
aF0.05924091798856685
aF0.05601631146020448
aF0.035825870956567224
aF0.0341175434764473
aF0.04247827536767784
aF0.03095899783435745
aF0.013044221447422006
aF0.04475718313724136
aF0.05556416256971708
aF-0.003771684754004939
aF0.0460951724076343
aF0.032888507633886226
aF0.0687469064039132
aF0.03756102508864397
aF0.011086678392499822
aF0.04488296365419673
aF0.057031557190558614
aF0.0534354168470797
aF0.00347355292896052
aF0.04853199517841561
aF0.04195076374298346
aF0.019670305451620646
aF0.010950604014764952
aF0.04756792864651231
aF0.03915451552635785
aF0.04472968984766138
aF0.009017896280513613
aF0.019888329553891235
aF0.0027516688938541297
aF-0.013532559066912623
aF-0.022802921354180567
aF0.017398013824334677
aF-0.00530291732204719
aF-0.004252975000583038
aF0.015254603873031554
aF-0.02583403452506554
aF0.025697060394566044
aF0.0033914265546407876
aF-0.003542012809544209
aF-0.019044709450933655
aF-0.019336073807322784
aF-0.037562299749539854
aF-0.05581825233038629
aF0.006014613306365079
aF-0.06703966541020163
aF-0.01826690413277353
aF-0.045981209646034645
aF-0.03556081610204827
aF-0.032189192170039814
aF-0.09387762007888277
aF-0.0001818682586216114
aF-0.07851674992798371
aF-0.06570309972376097
aF-0.08309217213437355
aF-0.05966623767096904
aF-0.0757159014429903
aF-0.09895556907725461
aF-0.03352325938764248
aF-0.02444659084705197
aF-0.0030663503988698298
aF0.006662218362588367
aF-0.05670228916455141
aF-0.03599103349085797
aF-0.0668378312911789
aF-0.05998891305675027
aF-0.028005894410229673
aF-0.0713363082239725
aF-0.02977814570810854
aF-0.08253534447870788
aF0.0011114461704353636
aF-0.027432472036900194
aF-0.001523608740401339
aF-0.02561815868219946
aF-0.08063112299745814
aF-0.05395516277695329
aF-0.054315300864239885
aF-0.06285279897941365
aF-0.01432967352573492
aF-0.022410385122912005
aF0.013348599880811197
aF-0.005497872416483726
aF-0.010617117757740581
aF-0.06174875848029446
aF-0.05383462501377487
aF-0.10204740136031014
aF-0.01632100281045429
aF-0.07530403308571976
aF-0.11550192366718028
aF-0.051003688128099633
aF-0.055015994795843653
aF-0.0038607346747767395
aF-0.06312554360648265
aF-0.09019582063118335
aF-0.049556692748455373
aF-0.04465707756236327
aF0.06947657716695645
aF0.03339327975201579
aF-0.00564970033081662
aF-0.00661332508390433
aF-0.007606918164101528
aF-0.021037100897361997
aF0.033067226737694376
aF0.05528668531632234
aF0.014806598404442914
aF0.0331136181933691
aF0.021193614690874468
aF-0.010590255522780145
aF-0.022895404172578213
aF0.06281815132109825
aF0.058972834283811844
aF0.0600201164463384
aF0.04550882671637717
aF0.03648681346271144
aF0.023858376085926065
aF0.00039994419368743285
aF0.06735396269384844
aF0.03876991171544082
aF0.05839079582104611
aF0.09835518342593859
aF0.0890463238551993
aF0.09309033042824576
aF0.044345806605645244
aF0.04169584272875654
aF0.022262324914490657
aF0.08330929970503076
aF0.06480443701282818
aF0.13288939646539177
aF0.1446640924108996
aF0.08690734969155103
aF0.1704888896757134
aF0.11402251313112789
aF0.024529543300781192
aF0.09419682246462187
aF0.06372943374525947
aF0.1020063182118651
aF0.07349019757612006
aF0.09152467406971052
aF0.07327182436499395
aF0.05299387574020312
aF0.07627669781828478
aF0.041566221041811464
aF0.03302946267635243
aF0.034720322909403224
aF-0.014333648849183615
aF-0.0038455656868405844
aF0.025195844487667877
aF-0.05847639277182889
aF-0.04057627587993935
aF-0.08625076473868556
aF-0.06838320547143678
aF-0.010272974242946993
aF-0.09987159335878586
aF-0.018097467450039546
aF-0.031899824965504836
aF0.06792736344477217
aF-0.06798727961550254
aF0.05235884189420547
aF0.005837024184125328
aF0.004124955866754894
aF-0.006130831038728181
aF0.01672796658989717
aF-0.0024999925790453676
aF0.01597693134018547
aF0.01702091221121676
aF0.011402697615542511
aF-0.01570882326042668
aF-0.030219636613986245
aF-0.012748437208042192
aF-0.048509896933814446
aF-0.025821263441654512
aF-0.012694223289129862
aF-0.0881817236208241
aF-0.02183562149220371
aa(lp24
F0.0032465537328907426
aF0.0021623781064286493
aF0.004004323036524633
aF0.0023789577287365196
aF0.0029245492415750423
aF0.002666060492109574
aF0.004216649327915781
aF0.0034472701448091275
aF0.0027144274752256667
aF0.0043525646026572815
aF0.003696514526829611
aF0.002496453088325552
aF0.001586679140267958
aF0.0012899021796146715
aF0.00038605969109959076
aF0.003811882894207899
aF0.0027131495986990077
aF0.004891302073654381
aF0.002946485213578252
aF0.002109037240473303
aF-0.00038050033571568093
aF-0.0015652249782303065
aF0.0004885949359538144
aF0.00575290469343502
aF0.0057113434358861456
aF0.005586512241329844
aF0.004204932614369288
aF0.005015340197321797
aF0.005210698056610361
aF0.006664388691826663
aF0.004579855799764419
aF0.000867902120753317
aF0.004794779036557759
aF0.0077857066358955436
aF0.010650022503804228
aF0.011935191514859415
aF0.006611385134148656
aF0.00633185734953597
aF0.006670407829302539
aF0.014217880111146925
aF0.009173342740244894
aF0.01307863789189665
aF0.001914786816283297
aF0.006511805309711886
aF0.007965262220599463
aF0.012963107357465581
aF0.009957035827233826
aF0.002862434080512639
aF0.0018205234982915602
aF0.0010378712142996719
aF0.007100514798799103
aF0.004618143610909246
aF0.0007895166024967631
aF0.0013194172598728635
aF0.002783144233220605
aF0.003270963462262675
aF0.0041290599350458975
aF0.0011014722106389967
aF-0.00026748867090078265
aF0.0004096746099565081
aF0.0007930429373906088
aF-0.0036772225155942122
aF-0.00016622663296837845
aF-0.0005171249935733669
aF0.006020623735076444
aF0.0058822232274765894
aF0.002485549678586834
aF0.0014958512218237552
aF0.003231555471867433
aF0.002188355718999458
aF0.006471697461323677
aF0.003899462014115739
aF0.0060130169512244095
aF0.0023844194728061784
aF0.004199196412317182
aF0.006547860938669053
aF0.006544872690676445
aF0.004728645454546117
aF0.003220865410280388
aF0.0017374311988851928
aF0.005085624753886843
aF0.009382961320073744
aF0.004789935323865444
aF0.008094709645873568
aF0.0027165574052424777
aF0.00525505337239873
aF0.002007289650799906
aF0.005993592151318471
aF0.00776346012903597
aF0.002172148133323082
aF0.005775491388176001
aF0.005286836111804402
aF0.0070770649560745235
aF0.005989038373606974
aF0.006023844052854134
aF0.005411497756112754
aF0.0057767083501817215
aF0.004065884924643213
aF0.007406670328121536
aF0.0012020689579016798
aF0.006064401197185881
aF0.009590499517089037
aF0.01394863798645456
aF0.005554306154191698
aF0.001563051373223889
aF0.004498277709442671
aF0.006052538953730325
aF0.007855278985217574
aF0.00586592171416403
aF0.01299441610199542
aF0.010544853992809453
aF0.02634108831277605
aF0.023635024442267973
aF0.00712689698169676
aF-0.010351157899954345
aF0.008008105075610495
aF-0.001408306638482359
aF-0.03483049062560194
aF0.021849199137978528
aF-0.008961274733121707
aF-0.022660793215660335
aF-0.02671322879161534
aF-0.037633455836172405
aF-0.02919371661493978
aF0.008868023026582312
aF0.011453126264582662
aF0.025683090868921482
aF0.015371715209802544
aF0.04635147198986512
aF0.05222188420716653
aF0.08495634659831591
aF0.08819556372637352
aF0.03771557361781192
aF0.08677566077766745
aF0.048386300261338
aF0.14880382396663497
aF0.09096432588100822
aF0.15884172763841253
aF0.10276546153001141
aF0.07786560580912905
aF0.02508886829322263
aF0.06991787751557998
aF0.07563463588947177
aF0.03387654256927157
aF0.026716422212757884
aF0.003477876956585349
aF0.006207107383101207
aF0.013986474531751525
aF0.014091343837870146
aF-0.0043624440459046916
aF-0.02910545453419785
aF0.0021072575513985704
aF-0.003855852657177274
aF-0.015084765196218831
aF0.0017796352121331263
aF-0.008264457405182038
aF-0.01267036117657165
aF-0.01888095385650863
aF-0.016950445007452953
aF-0.026827051027610297
aF-0.047454280982049464
aF-0.012767894304242015
aF-0.06664546325758236
aF-0.05786793145795137
aF-0.04789259417677644
aF-0.046613824437311165
aF-0.06942661925062084
aF-0.03398141373673061
aF-0.0443782552644794
aF-0.035851000694834184
aF-0.04410016167323112
aF-0.005820372992833821
aF-0.012753239174409285
aF0.005414615681538442
aF0.015572556203691164
aF0.016665075914312183
aF0.013557394285910383
aF-0.006807712526795345
aF0.005539129431110474
aF0.012337620576628926
aF0.025436577649868654
aF0.016616645359055812
aF0.010670759669851072
aF0.02404664619547479
aF0.024257084492810773
aF0.024604122620387747
aF0.025809867793737774
aF0.023416365896731465
aF0.012964083866120203
aF0.03490908968303373
aF0.03837028278735167
aF0.027631107115797818
aF0.01584559123989494
aF0.014159894832041423
aF0.0072101604609676765
aF-0.006512830638784524
aF0.015384135755233301
aF0.012661898587164256
aF0.011375541127922698
aF0.01327282865021574
aF0.005018970986593288
aF0.0005331828672584572
aF0.010593131617499777
aF-0.0037890310353780325
aF-0.003297760538611396
aF0.0017313451068144315
aF0.01503945701115774
aF0.005600114554876468
aF0.014231897735173095
aF0.024062512097192807
aF0.016713001759202616
aF0.03475595011065377
aF0.00764771139769085
aF0.015617196682033683
aF-0.0017193836459537181
aF0.021831155437499795
aF0.01075087551401606
aF0.0272675546364967
aF0.011313816085768593
aF0.012447108140696985
aF0.00575510190581818
aF0.004530650751693681
aF0.01865118004621882
aF0.017747362553515826
aF0.02759045900078038
aF0.005962814267686347
aF0.023181126070196872
aF-0.011988528370334416
aF-0.0035703794203486195
aF-0.049359742745997456
aF-0.03565889930948665
aF-0.11476223366977985
aF-0.0915689800433839
aF-0.030261634282774095
aF-0.05037070440884305
aF-0.07608809621354917
aF-0.06639282519395397
aF-0.029701318697684005
aF-0.030203634014375487
aF-0.056679698257399144
aF-0.03414822276997411
aF-0.03839926347787207
aF-0.041349332105205756
aF-0.0364959158262449
aF-0.024957375610181146
aF-0.022157785174705215
aF-0.02388804989797603
aF-0.03610731791585431
aF-0.03373073369878441
aF-0.0478553424535077
aF-0.03635067763499888
aF-0.028995125074670784
aF-0.015442023490475727
aF-0.019425889829639612
aF0.01086403043159554
aF-0.03424111979856297
aF0.0013069106411678377
aF-0.005126493499850505
aF0.01909246242539927
aF0.04515809395063314
aF-0.0029175140524707785
aF0.039753218956886514
aF0.0021335665403538176
aF-0.0009578026407078964
aF0.020799700356524193
aF-0.0466757002530567
aF0.016854521627824474
aF0.0054870460738335675
aF0.04390996534953525
aF0.08769330655471431
aF0.07984347051693363
aF0.1052994466264076
aF0.030143242596365562
aF0.11513968895918943
aF0.1210836010578093
aF0.07667394651471089
aF0.05994413046450133
aF0.025354019926550803
aF0.08767878464155372
aF0.1289121035945515
aF0.15981114209130062
aF0.15423712927105512
aF0.14061803090399472
aF0.08266065877727394
aF0.07715193229313937
aF-0.005779844910225073
aF0.013540428620597662
aF0.025355400190565543
aF0.05554679539259968
aF-0.014411658814963
aF-0.03742388182321896
aF0.02025005961956808
aF-0.005130574500425342
aF-0.01705878757353748
aF0.005700911001880471
aF-0.029548242752537524
aF-0.06441593436196189
aF-0.05223693560289046
aF-0.069102709408644
aF-0.05236977188144731
aF-0.05009734546342006
aF-0.04392363130774142
aF-0.10876788765568632
aF-0.09052454218678233
aF-0.047135054253473176
aF-0.016495403076336783
aF-0.01821465827696106
aF-0.05281876283067006
aF-0.02813171745837777
aF-0.07120571762859267
aF-0.052683613923193685
aF-0.029823147799507795
aF-0.0822519002511349
aF-0.031369172104923654
aF-0.04903005339677371
aF-0.09234005754175893
aF-0.061150228246229746
aF-0.08706732799406267
aF-0.098831695636232
aF-0.01493922474990443
aF-0.08195569933569861
aF-0.061616334023735835
aF-0.06715076771326482
aF-0.058935678698501866
aF-0.08403647643822824
aF-0.07387930161183828
aF-0.03502901445932851
aF-0.08840770454040867
aF-0.03807170775533003
aF-0.10184219847053255
aF-0.06485232351114996
aF-0.10382949727563022
aF-0.07493556151945001
aF-0.11847112826842755
aF-0.11131445129954003
aF-0.13300728391446165
aF-0.08676473540797804
aF-0.14971011269467924
aF-0.11061294680199237
aF-0.07620327061401172
aF-0.07058586805490355
aF-0.04363463742012162
aF-0.04167080844932139
aF-0.0534994295470166
aF-0.03871025222163048
aF-0.018051348082185097
aF-0.06108213380310499
aF-0.07453858203509997
aF0.0008920821634586778
aF-0.06387203695621772
aF-0.04399895826371132
aF-0.09195746459454941
aF-0.05307475191218479
aF-0.01567632633328855
aF-0.059249014796783565
aF-0.07248694744423013
aF-0.06946867199414762
aF-0.005804991307097043
aF-0.06290456637369066
aF-0.05357366637142918
aF-0.02790197047224569
aF-0.01680528328105666
aF-0.05970103890167293
aF-0.0532207731348348
aF-0.057342214116042296
aF-0.014652867869149223
aF-0.025329391559058133
aF-0.009428644775770748
aF0.01515013271255494
aF0.02404436055458778
aF-0.027804827968303386
aF0.004933398833690502
aF0.0019096807018818022
aF-0.020624819906151375
aF0.03103007633027751
aF-0.03447678737272886
aF-0.006019829054368948
aF0.002311792984742207
aF0.02119936241833516
aF0.02141572046573627
aF0.04215261629283524
aF0.06555622190769095
aF-0.007265524032902479
aF0.07857092918467153
aF0.01928941836943477
aF0.05423990400284404
aF0.04376149637390856
aF0.03564173223839639
aF0.11178332954058613
aF-0.003280909909503989
aF0.08906942565959665
aF0.076738214611888
aF0.09791632555642305
aF0.0668121584698228
aF0.08654004579027512
aF0.11599418825572433
aF0.0363816374733877
aF0.02355909963125574
aF-0.0035688147748938388
aF-0.01287347946940433
aF0.061003739511999666
aF0.036983497690886144
aF0.07962822087188196
aF0.06872817619038972
aF0.025518483182916267
aF0.08289816053832005
aF0.031193074795585404
aF0.09745333062686626
aF-0.007256204131171059
aF0.03245006172793644
aF-0.0017681835290298859
aF0.02764308214242115
aF0.09457394093373465
aF0.054941809969931574
aF0.0566873509872906
aF0.07253889872979594
aF0.010886119935903665
aF0.021661940664719503
aF-0.017753431740371698
aF0.0038600185202852474
aF0.005590982905775841
aF0.06933302207298633
aF0.054175064117849975
aF0.11959821128346705
aF0.019273713174025618
aF0.08754989391093347
aF0.1335102637831416
aF0.05826365550658628
aF0.058125152299170244
aF0.0018165614892758156
aF0.07469580782365613
aF0.10401239921146682
aF0.05630634722976747
aF0.050656988792909904
aF-0.09697009105636274
aF-0.04825610366222158
aF0.0024174080447659212
aF0.00237575006190428
aF0.006841134563562124
aF0.022992725499727175
aF-0.04944922808960785
aF-0.07372229134409075
aF-0.02302137557087144
aF-0.05260452898198247
aF-0.04028115843714264
aF0.0034329400249175942
aF0.027277461582570797
aF-0.08231610504895533
aF-0.0750089376071433
aF-0.07751059285766523
aF-0.06257064056551956
aF-0.055685211312863886
aF-0.03594675715795997
aF-0.0004538420687379296
aF-0.08399219975090774
aF-0.04416133314098158
aF-0.07096117051910057
aF-0.1242809623032963
aF-0.11264719872500785
aF-0.11796844016867764
aF-0.06084845384554537
aF-0.060072644097758865
aF-0.030142687384024154
aF-0.11073366195470201
aF-0.08379486252095143
aF-0.17418072719857627
aF-0.18826573356514517
aF-0.11113140359247786
aF-0.22242090208098808
aF-0.1464837505813289
aF-0.02822742965380875
aF-0.1183946659634676
aF-0.07954568342785816
aF-0.1292717962122477
aF-0.0946479714791979
aF-0.12511255113074837
aF-0.09744001329834286
aF-0.0723875762332881
aF-0.10141384588476045
aF-0.054635211567681
aF-0.04607009167086345
aF-0.047911617391863226
aF0.015037155255282377
aF-0.00356384623717624
aF-0.040514624043319146
aF0.06547997403502527
aF0.04799253041533071
aF0.0996061682262204
aF0.07368871067403662
aF0.002627500571366005
aF0.11486725361929018
aF0.016913535077645037
aF0.03495613037946556
aF-0.08759031047976566
aF0.07883541196332887
aF-0.07011154973781215
aF-0.017927094014582576
aF-0.007172330748954678
aF0.00418991190343911
aF-0.02567794951655393
aF-0.0056725086226742764
aF-0.026811665471035175
aF-0.03559632390468498
aF-0.0215690676726028
aF0.01307157387617487
aF0.03027970864941516
aF0.00858764729316046
aF0.05322619361483687
aF0.020778765044712676
aF0.011601834335978944
aF0.10093940055294474
aF0.023299467727418463
aa(lp25
F-0.003497748081941811
aF-0.00225632220768323
aF-0.004138680215552761
aF-0.002503147502789903
aF-0.0030833270352534727
aF-0.002783669603682422
aF-0.0044192835734535255
aF-0.0035652226846578207
aF-0.0028746871509370705
aF-0.004530841950159871
aF-0.0038552123509326304
aF-0.0027024234066534312
aF-0.0016525364912420481
aF-0.0014877555354963338
aF-0.0006086058210375419
aF-0.003967397085866891
aF-0.0028368317223793887
aF-0.005043798784253988
aF-0.003082498588983983
aF-0.0023184040603311897
aF0.00019573049593730272
aF0.0010875400422558116
aF-0.0007778589012092972
aF-0.0059900477875854405
aF-0.005763381842435972
aF-0.005875137627024596
aF-0.004236257805166593
aF-0.005289736505688732
aF-0.005446161947809007
aF-0.006910259360921797
aF-0.004822304158050434
aF-0.0011094786240995107
aF-0.004977094016467051
aF-0.007894957979704109
aF-0.010838033725754474
aF-0.012336165810933924
aF-0.006777542535281544
aF-0.006643153668549097
aF-0.006803139126314705
aF-0.014577943940234745
aF-0.009427364699463855
aF-0.01341277317424533
aF-0.0022644780941987216
aF-0.006739223620389457
aF-0.008388310416074938
aF-0.013231175224676416
aF-0.010139704954950734
aF-0.003233989097800661
aF-0.0020314395801687775
aF-0.00150549073381186
aF-0.007392102233427136
aF-0.004932248304139074
aF-0.0009817575578482866
aF-0.0015336654258226539
aF-0.0028008768685908597
aF-0.00347958037203196
aF-0.00415455659343316
aF-0.0011800333389951185
aF0.00020120469336889872
aF-0.0003860928994083627
aF-0.0010244594879616268
aF0.0033738497786416034
aF-0.00013053440134884483
aF0.00033178158101815754
aF-0.006394482175303561
aF-0.005931455194262382
aF-0.002873729712805047
aF-0.0016547779694327798
aF-0.003696729049116199
aF-0.0024985195869333954
aF-0.0070359935035719644
aF-0.004167501987101051
aF-0.006331524801397857
aF-0.0028635659690469718
aF-0.0043885327922895765
aF-0.006790795925664499
aF-0.0067911263138542965
aF-0.005243069211095077
aF-0.0033042304470554612
aF-0.0022703971640247286
aF-0.005252664633707144
aF-0.009907842409599755
aF-0.005016335028675284
aF-0.008492900493430915
aF-0.0028299918131393454
aF-0.005782165152770901
aF-0.002411397939279055
aF-0.006452301344867438
aF-0.008099468691939964
aF-0.002809720727062849
aF-0.006191872096688232
aF-0.005843364840532217
aF-0.007607194286147784
aF-0.006360337621116917
aF-0.006133381849820047
aF-0.006058545912069921
aF-0.006413848991661393
aF-0.004762207759807185
aF-0.007845810867092245
aF-0.0018303947715565673
aF-0.006444377777204184
aF-0.010146800026061484
aF-0.0147496591914467
aF-0.006141386580302221
aF-0.002001059423126167
aF-0.004691539608098546
aF-0.006421653101248621
aF-0.008352619366622512
aF-0.006327908079798202
aF-0.013707508724173971
aF-0.01161461257993502
aF-0.027341554993018508
aF-0.02476322469275004
aF-0.010128679466181775
aF0.0064892829552640335
aF-0.011017174545949169
aF-0.004548737997142643
aF0.02792528738238911
aF-0.02516535885302773
aF0.004847650520009244
aF0.017073383056130428
aF0.02418968759498619
aF0.03448416808675797
aF0.02445761525540444
aF-0.009988185948074664
aF-0.01585665329236595
aF-0.032700665300102065
aF-0.01802906746682685
aF-0.052373008416469746
aF-0.058963729454770804
aF-0.09168302481326553
aF-0.09638774398849158
aF-0.044017496469166716
aF-0.09595965849652464
aF-0.05196056018545794
aF-0.15563912955270903
aF-0.09556710592861775
aF-0.1685511154040053
aF-0.10662218751618091
aF-0.08273283081760725
aF-0.028267958362894814
aF-0.0744076833199059
aF-0.07741818185925117
aF-0.03797619624927961
aF-0.029023916410053106
aF-0.0050128531949172285
aF-0.007706186972969172
aF-0.016847733790805133
aF-0.015318258774458601
aF0.0021716971727468986
aF0.02601149204694029
aF-0.0031563539166994123
aF0.0014552079709614152
aF0.011666208492771855
aF-0.004013766069388759
aF0.004681288502247549
aF0.01061178396615201
aF0.015253928932467634
aF0.014273192533150954
aF0.02390682001330391
aF0.041103711375665444
aF0.009731417914576074
aF0.05927449397597272
aF0.05079740895422973
aF0.04120456740024129
aF0.04110952174561372
aF0.061646368726881076
aF0.029605576768799303
aF0.03913733680242417
aF0.03170938252663262
aF0.038637539437802834
aF0.003096168641874076
aF0.009781757731805351
aF-0.007368084096696162
aF-0.01625663449734806
aF-0.017311094572017603
aF-0.014353115646837522
aF0.006249319899394977
aF-0.005990917605016994
aF-0.012511913410339812
aF-0.02605781027031403
aF-0.017757753684937806
aF-0.01124322007532717
aF-0.024810512636768145
aF-0.024664975671420925
aF-0.024670166200491048
aF-0.02643259681408896
aF-0.024412921270478113
aF-0.014011837263689536
aF-0.035979728968683226
aF-0.04017435244535112
aF-0.02870057706449098
aF-0.017709640421650887
aF-0.015393853795721274
aF-0.008547393235112456
aF0.004734062294627088
aF-0.01727995613601843
aF-0.014413008172242127
aF-0.012154862308172483
aF-0.015290024649753159
aF-0.006186411994995216
aF-0.001893635753166428
aF-0.011020758771835743
aF0.003180848123121205
aF0.0021502696392608233
aF-0.002789693866934249
aF-0.0161574100471896
aF-0.006859925186527189
aF-0.01560893786926727
aF-0.02541168418405896
aF-0.017819415262179592
aF-0.03617305541238119
aF-0.00897584355285095
aF-0.017258551462029575
aF0.000840920783069743
aF-0.023182990311950417
aF-0.012213463950693292
aF-0.02891409155092712
aF-0.012391419394320953
aF-0.014119800745681803
aF-0.007147297467869747
aF-0.00574612174399832
aF-0.02076101035279347
aF-0.018912694582913028
aF-0.030216714221678265
aF-0.007309861504607248
aF-0.025218526720779642
aF0.009448474166143863
aF0.000984094223064284
aF0.04487602692196714
aF0.029922804455889008
aF0.1045942253741209
aF0.0826325545857367
aF0.02431562862791485
aF0.0425318099391364
aF0.06626619982882329
aF0.05885357669376643
aF0.02545748293845382
aF0.0251377063511249
aF0.05186042217318898
aF0.02804158831987913
aF0.034017129872123596
aF0.036052709174611584
aF0.034274224203182733
aF0.022140541812836294
aF0.018097351176402873
aF0.021343042526069382
aF0.031538361002151356
aF0.028651284398203584
aF0.04348436269952055
aF0.0340602876090217
aF0.026355883771209315
aF0.01257745417624498
aF0.014616456129333698
aF-0.016349327851289293
aF0.031511803362257396
aF-0.008191906578473282
aF-0.00019853343247719225
aF-0.02204645065073766
aF-0.04770329508109971
aF-0.00414998456087408
aF-0.046711029638884946
aF-0.003787045539955372
aF-0.005322401432716622
aF-0.026446271208799887
aF0.040156438001351526
aF-0.022931326648697486
aF-0.010800166584145048
aF-0.05084642062450078
aF-0.09443258416573114
aF-0.08600757207025232
aF-0.11091362112339469
aF-0.03493120336184488
aF-0.12094192767656362
aF-0.12378592892418282
aF-0.0822223796171101
aF-0.0656472087188312
aF-0.031446024964067926
aF-0.09115107246698397
aF-0.13427414173646232
aF-0.16549190382773873
aF-0.15983675107191272
aF-0.1436082007521318
aF-0.08463737585567321
aF-0.07888663897916588
aF0.0007181841119871666
aF-0.021236518145523586
aF-0.032078086018264354
aF-0.05668905540619292
aF0.01009423883840127
aF0.03324287929129214
aF-0.023047117119772687
aF0.0003277736116054644
aF0.011762459871117277
aF-0.009313934730906191
aF0.02507759743043564
aF0.05650634818398235
aF0.048978335748975296
aF0.06316993274893726
aF0.045740744869360174
aF0.04727833099091929
aF0.03957077683036912
aF0.09871689071445675
aF0.08106655398330732
aF0.038711224010178034
aF0.011442877423152418
aF0.017606186259126567
aF0.04516989322996652
aF0.02209553316568567
aF0.06673625679968699
aF0.04437039827788878
aF0.023602259294101077
aF0.07423637351896437
aF0.024435033751577954
aF0.04285823665516258
aF0.08410398380135241
aF0.05165633361020639
aF0.0777709434241788
aF0.08804719316828805
aF0.009400973981692264
aF0.07335979058346793
aF0.05459393975006491
aF0.05792817695116594
aF0.052027311989171855
aF0.07564369926371226
aF0.06519095404601612
aF0.02881537493181072
aF0.07981277400311068
aF0.03180326912980177
aF0.08967473329318815
aF0.0570664258846097
aF0.09204377110426866
aF0.0654646866134208
aF0.1054663373190128
aF0.09918018965760658
aF0.11925170856337217
aF0.07833532769199565
aF0.13622563607662144
aF0.10228022681788475
aF0.0708996052841203
aF0.06660252488856809
aF0.04243232566941585
aF0.03968799159102977
aF0.04952391900882794
aF0.036160578733920444
aF0.013836747712937771
aF0.05322271228281778
aF0.06519103680669368
aF-0.004859344683922224
aF0.05541176505832129
aF0.03818645670842676
aF0.08313125254998298
aF0.04449399795423839
aF0.012740554097384574
aF0.053065979394448605
aF0.06730360341101836
aF0.06334452754319506
aF0.003206579698891862
aF0.05769011324042319
aF0.048814497274062035
aF0.022994958607570056
aF0.012356939340009997
aF0.056814081176825876
aF0.04539296043103836
aF0.05269492992436186
aF0.009380082288102321
aF0.02253227994799484
aF0.0012325618644430964
aF-0.01726121841891242
aF-0.029743301029644186
aF0.019925526835166324
aF-0.008284701945935552
aF-0.007537976389562017
aF0.017308968263629786
aF-0.0326482071137506
aF0.030581780391127432
aF0.0034979339526711173
aF-0.0047073847664613625
aF-0.02532297207433415
aF-0.025116463673130474
aF-0.047344909537750154
aF-0.07117964799629177
aF0.005848593850944163
aF-0.08561582204136646
aF-0.024439858329657234
aF-0.060845344276862806
aF-0.047943880495163294
aF-0.042214797468159884
aF-0.11853038936800196
aF-0.0008755644194276482
aF-0.09943341090828665
aF-0.08162021893243337
aF-0.10453867970984891
aF-0.07627711162417983
aF-0.09453803654162247
aF-0.12449193703043748
aF-0.042897200225564
aF-0.03323525204410232
aF-0.007162983532508967
aF0.006441566067946849
aF-0.07163497225187204
aF-0.04397196988629712
aF-0.08376989841318362
aF-0.0741763117508148
aF-0.034414768940850986
aF-0.08891077919978778
aF-0.03611130525614971
aF-0.10191288280734963
aF-0.0006171725784254889
aF-0.035645581089644975
aF-0.0036389960676776146
aF-0.0321490100138356
aF-0.099380258916254
aF-0.06419086434193125
aF-0.06630169594731121
aF-0.07691364982785559
aF-0.016932339546343246
aF-0.02735887499415747
aF0.014351399140879665
aF-0.007791109438929073
aF-0.013802649692028553
aF-0.07625078730371604
aF-0.06368350629913491
aF-0.12296298836378702
aF-0.020846799200014997
aF-0.09128289851001715
aF-0.1412079103894531
aF-0.061892688491766636
aF-0.06711399962177056
aF-0.004577170130224752
aF-0.07627426278121839
aF-0.1081393051370733
aF-0.05946605215656343
aF-0.05378261888716825
aF0.08384770060583405
aF0.03944400658741665
aF-0.006915975549431698
aF-0.008089436473400984
aF-0.009885323052001785
aF-0.025666525505795817
aF0.0402166766213968
aF0.06614922536701913
aF0.01745899236646998
aF0.03891248186525112
aF0.026606220160338114
aF-0.013546397462059939
aF-0.028532650290044412
aF0.07420619719969777
aF0.06947262694843195
aF0.07099860635934767
aF0.0537567252784407
aF0.043912592876443675
aF0.027922206085170393
aF-7.554968516018838e-06
aF0.07933385763588491
aF0.04573487629484875
aF0.06959977252483032
aF0.11727734531618593
aF0.10589366872821751
aF0.11083894847883329
aF0.05245551876519951
aF0.049828264514441716
aF0.025972728769526204
aF0.09996711225600433
aF0.0771685521922758
aF0.1575829766268783
aF0.17270832661959792
aF0.10271823619642534
aF0.20444315506960895
aF0.13528367567414334
aF0.02781906102744334
aF0.11168012059253564
aF0.07414319517628437
aF0.12116699109081415
aF0.08652947954791677
aF0.1091968922088658
aF0.08683704101827887
aF0.06286690315645678
aF0.09140132254818807
aF0.04882482322123084
aF0.03959875246746613
aF0.04057193924666349
aF-0.018130135582411774
aF-0.006581298992267138
aF0.029130203622635388
aF-0.07403056005104357
aF-0.05241803620494816
aF-0.1065739696678539
aF-0.0845770288133016
aF-0.014638609436628203
aF-0.12376890992405996
aF-0.022871785612593964
aF-0.042068966899835886
aF0.08117746568795316
aF-0.08536146283559795
aF0.06226569216653606
aF0.0050316991528315804
aF0.004366212778369423
aF-0.009881632648495087
aF0.01987423084355984
aF-0.005314749229823773
aF0.01909383830971302
aF0.019801172686442176
aF0.012831263094912698
aF-0.01963646665897618
aF-0.040042118913625656
aF-0.01741376351106188
aF-0.06344873225085347
aF-0.03456432462674608
aF-0.018977121483369858
aF-0.11328542041340775
aF-0.028161848839309323
aa(lp26
F-0.0026712618440829228
aF-0.0017687231962195886
aF-0.0031900424859954463
aF-0.0019395977833628097
aF-0.0023464549972467543
aF-0.0021159767406624405
aF-0.0034218689187613775
aF-0.0027366515881601214
aF-0.002205662285614282
aF-0.0035143054326899326
aF-0.00302773399777729
aF-0.00201463253426353
aF-0.0012727185945446452
aF-0.001049948229816962
aF-0.00046884223058680943
aF-0.003074272867224074
aF-0.0022517417219066046
aF-0.0039829456695504115
aF-0.0024715914926758584
aF-0.0018032239240513685
aF0.00015848151740127366
aF0.0008719704585161248
aF-0.0006585802798906866
aF-0.004755447027984696
aF-0.004632460391828558
aF-0.004675261016917661
aF-0.0033752983393880885
aF-0.004102289450560296
aF-0.004336061701543631
aF-0.005444250711029808
aF-0.003847620069910428
aF-0.0008386644553595088
aF-0.003934417674958198
aF-0.006187349167980962
aF-0.008581789698870822
aF-0.009687545827886383
aF-0.005334593416760462
aF-0.005130763584237858
aF-0.0054219679178111
aF-0.011447369224415763
aF-0.007498121030442239
aF-0.010520421358244178
aF-0.0017408094538095284
aF-0.005221204544892353
aF-0.006626716452396231
aF-0.010429785874378402
aF-0.00798090876883648
aF-0.002471043335824273
aF-0.0014943380049373138
aF-0.0011379168382769018
aF-0.005800668001273509
aF-0.003888663957059923
aF-0.0007217858230279698
aF-0.0011798251848223263
aF-0.0021620455304204645
aF-0.0027454480471325593
aF-0.003254225748820938
aF-0.0009405425448170123
aF0.00022485962359492087
aF-0.0002947527062517543
aF-0.0007561045352733039
aF0.0027570473133369357
aF-3.7703264811545564e-05
aF0.000377847415277885
aF-0.005041692997515869
aF-0.004673925586327569
aF-0.002235307092894569
aF-0.0012416885008316606
aF-0.0028471895233533437
aF-0.0019390540638746414
aF-0.005473536359639225
aF-0.0032197076838461135
aF-0.004946183549733684
aF-0.0021399715418509756
aF-0.0034199962958102077
aF-0.005297940971491958
aF-0.005375509198290655
aF-0.004095252059748625
aF-0.0025691332214907467
aF-0.00162532055280391
aF-0.004091177440010191
aF-0.007683608557860012
aF-0.003891227590323736
aF-0.006516794646100499
aF-0.0021885001194137457
aF-0.004366050970424279
aF-0.0018034027425060453
aF-0.004917230024752295
aF-0.006270388971563368
aF-0.0019951060333429404
aF-0.004642418088665525
aF-0.004470460890041356
aF-0.00591679609812787
aF-0.00496254132402856
aF-0.004717287220621933
aF-0.004680708039485348
aF-0.005020786567151675
aF-0.003723310976782398
aF-0.006173480140975735
aF-0.001361581750182462
aF-0.004921293466179289
aF-0.00791413149084526
aF-0.01144135633996474
aF-0.004743007410825604
aF-0.001351597473110588
aF-0.0036667729398506374
aF-0.00497340623248163
aF-0.006397381274670012
aF-0.004741068555899496
aF-0.010344230178774597
aF-0.00876287918014753
aF-0.020982538110794376
aF-0.019049778090862137
aF-0.007156665206181432
aF0.006196046288298789
aF-0.007714251703479304
aF-0.002094967459495645
aF0.023279329912284853
aF-0.018331068261616866
aF0.004574422314258853
aF0.015015287072459249
aF0.019677118633657696
aF0.028122417104191565
aF0.020395488656597995
aF-0.006910276710808463
aF-0.010893116763173892
aF-0.023970616233029082
aF-0.013625445039828444
aF-0.03766203050065168
aF-0.04411778780403499
aF-0.06921844678936605
aF-0.07155630816475161
aF-0.032362523321308026
aF-0.07118213621136327
aF-0.04099324135417586
aF-0.11931115990245418
aF-0.07597531832934763
aF-0.13159459176627847
aF-0.08437069224693833
aF-0.06372906612048611
aF-0.021251799248611206
aF-0.05835026339806695
aF-0.06118946993856921
aF-0.03050271369266386
aF-0.022778741474889758
aF-0.0036748509281093393
aF-0.006145479433978355
aF-0.013034790944988151
aF-0.01181577942405126
aF0.0020908361374641434
aF0.021100962145463406
aF-0.002087244718585167
aF0.0014099441366172993
aF0.009267446632958736
aF-0.003117237224906384
aF0.003998360551930186
aF0.008330775010101857
aF0.012664954995324312
aF0.011872139692495601
aF0.01941033187235054
aF0.0333301497936507
aF0.007789556161502412
aF0.04724538710012265
aF0.04040519805157819
aF0.032783230713822845
aF0.03235298755643041
aF0.04906281305411298
aF0.023281542018430954
aF0.030950426003372524
aF0.02509207801197247
aF0.03103377952720761
aF0.002536020703855064
aF0.007731557389357907
aF-0.0056122245742043185
aF-0.012844128094835493
aF-0.013762211876114218
aF-0.011301659002489988
aF0.0051525737725461535
aF-0.004333246516832182
aF-0.009908061762827628
aF-0.020339360007740222
aF-0.013807719310670164
aF-0.00891496910745474
aF-0.019204603921474415
aF-0.01920415218208428
aF-0.019216390939408638
aF-0.020454928791558778
aF-0.01880780869467701
aF-0.010598135065818757
aF-0.02812841922969647
aF-0.031221339567789125
aF-0.022509361842835956
aF-0.01351784963880917
aF-0.011600915531085878
aF-0.0062085868145986545
aF0.003952041951706135
aF-0.013023041964982492
aF-0.01091331888109445
aF-0.009483371068833726
aF-0.011243388517766755
aF-0.004579442797921658
aF-0.0010857378022998596
aF-0.008180812308819995
aF0.0028421205168458813
aF0.002058654465538317
aF-0.001959246515239113
aF-0.01234261847633857
aF-0.005318147320507221
aF-0.012035419713189516
aF-0.019870351939672955
aF-0.013960708923928554
aF-0.028239590533797015
aF-0.0071734428798510405
aF-0.01306227580998116
aF0.0009328408581900908
aF-0.017694231733838262
aF-0.009482429395241406
aF-0.02224264501957209
aF-0.00942890505221218
aF-0.010335114843368487
aF-0.0050102606736800075
aF-0.004039530673551008
aF-0.015570730908638083
aF-0.014801278077036548
aF-0.022809856807764938
aF-0.005391680918665682
aF-0.018940359459951654
aF0.00795563579071215
aF0.0016938309731242649
aF0.03618251443893091
aF0.024387184069585646
aF0.08403752350193067
aF0.06695354320362762
aF0.019834620520685024
aF0.033511457157407415
aF0.05425709793042607
aF0.047635836108694145
aF0.02098052415456362
aF0.02131073879509186
aF0.04262363545700722
aF0.023457174750106165
aF0.02753379685270586
aF0.0301892924983217
aF0.027845749009135452
aF0.018678661431401438
aF0.014665252636809215
aF0.017512732241622427
aF0.025304187285725845
aF0.023347815215352345
aF0.03504463951038397
aF0.0274475819699273
aF0.021957363697792803
aF0.01058374914921128
aF0.012681298127129636
aF-0.011289539286457036
aF0.026504432335991764
aF-0.004053129841199837
aF0.0015115855302395577
aF-0.015549925950791205
aF-0.03502710951592286
aF-0.0025062259981931665
aF-0.034226490721100115
aF-0.0018374924088074055
aF-0.0026969308824745
aF-0.019360670076823617
aF0.03272125339617831
aF-0.015570196873383886
aF-0.007547023350649756
aF-0.037942583922679005
aF-0.07244494489534781
aF-0.0671056556720315
aF-0.08556917415662367
aF-0.028000309559203244
aF-0.09376318450663562
aF-0.09741519094535309
aF-0.06493901209444072
aF-0.05059026224659197
aF-0.0234845032654844
aF-0.07129538394190615
aF-0.10546056110786291
aF-0.1310432986946916
aF-0.12775034061719875
aF-0.1144061294681222
aF-0.0675214826979607
aF-0.061872109607914595
aF0.0014774728717961312
aF-0.01653615097785838
aF-0.024825169636835624
aF-0.04473013394892318
aF0.00910913232222054
aF0.027086275561337036
aF-0.017412200395029383
aF0.0006030790538475309
aF0.010071238012576299
aF-0.006331438404432363
aF0.02048672312057823
aF0.04618334842805144
aF0.039748715849014606
aF0.05151954111482468
aF0.037747417016960584
aF0.0385709510829969
aF0.0332499603761224
aF0.08018088930703747
aF0.06518328045487483
aF0.03204684643608793
aF0.01057211030082303
aF0.014439014621952035
aF0.0377561333291853
aF0.019331187057016863
aF0.05369768594577482
aF0.03818183082622066
aF0.02063099721464083
aF0.06041290120688192
aF0.02213370166070878
aF0.03618791890001132
aF0.06853226100253365
aF0.04402582285943919
aF0.06364009787698766
aF0.0717935832727298
aF0.009423847971283058
aF0.059637951346805704
aF0.04432380848961062
aF0.04740900518839591
aF0.04242809126670789
aF0.060832244701000036
aF0.05334722595663312
aF0.024074216423568995
aF0.06427353594938005
aF0.026102548100906214
aF0.07182937670625242
aF0.04524472965458941
aF0.07344827998270018
aF0.05149876991951551
aF0.08348803783463621
aF0.07813737947718344
aF0.094592160662404
aF0.061545928224502076
aF0.1087652463453193
aF0.08160447153995573
aF0.057038358335583364
aF0.05398007977211925
aF0.034549483094449725
aF0.03296286777569839
aF0.041025813870287406
aF0.029883567200115185
aF0.012793587655750213
aF0.043157313936565515
aF0.05362771051872944
aF-0.003498039535366939
aF0.044378295809470156
aF0.03178429377174475
aF0.06602668803702631
aF0.036241714575599215
aF0.01074405150954662
aF0.04323934731742034
aF0.054978342198154034
aF0.051466701689963666
aF0.003473971127471813
aF0.04675045941580982
aF0.04052435672674528
aF0.019006616061780095
aF0.010651805931845856
aF0.045778562483697466
aF0.03782807417177074
aF0.04315063758875852
aF0.008892470878866352
aF0.01931419488522907
aF0.00296957229292515
aF-0.012813924434196265
aF-0.02152458840501679
aF0.01692890474756839
aF-0.004820087646129989
aF-0.003759269962856477
aF0.014821007200750651
aF-0.02458285434749223
aF0.024765748139255517
aF0.0033847239592396756
aF-0.003294857414919884
aF-0.01791418690795533
aF-0.018260359669855508
aF-0.035738389725835186
aF-0.05305601679764996
aF0.006007865772553367
aF-0.06370064802597579
aF-0.01716787521705495
aF-0.04343268481806006
aF-0.033465282118643906
aF-0.030440657896830568
aF-0.0893893059045311
aF8.267447746082703e-06
aF-0.0746564429551165
aF-0.06267716346027712
aF-0.07913895538999609
aF-0.05664402537992225
aF-0.07217525113031736
aF-0.09426073962030315
aF-0.03176512250544471
aF-0.022945906085898384
aF-0.0024558111667386073
aF0.00667285959896625
aF-0.053909238467776496
aF-0.0343525176759237
aF-0.06362686448324825
aF-0.05719201423686527
aF-0.02666628480356515
aF-0.06796412565370681
aF-0.028434326325920075
aF-0.07885578009539854
aF0.0013561401038850638
aF-0.02597862369446065
aF-0.0011101418445701309
aF-0.0243554044870659
aF-0.07701783263599765
aF-0.05170340997304865
aF-0.05183953372974872
aF-0.06007963724267258
aF-0.013682355036058488
aF-0.021373734537292542
aF0.013136714519666644
aF-0.004991910980203407
aF-0.009943094556323613
aF-0.05892296883080502
aF-0.051621092512398194
aF-0.0977551421392412
aF-0.015419868432939838
aF-0.0720615977555555
aF-0.11043159628130549
aF-0.04871138618158227
aF-0.05251501295426714
aF-0.003577386408317276
aF-0.060382047697376415
aF-0.08638289856627467
aF-0.04737484078708025
aF-0.042685328917349455
aF0.06682077932688485
aF0.03223185413849573
aF-0.005294349467810271
aF-0.006166739921027869
aF-0.007074799377781226
aF-0.020024857777212714
aF0.031856250272858475
aF0.05320280947370894
aF0.014355785341945416
aF0.03209977841448232
aF0.020544433431064327
aF-0.009793532462924312
aF-0.021728433621233764
aF0.06061843505055884
aF0.056906615248122225
aF0.05788750205278578
aF0.04392269026488832
aF0.0351912447637542
aF0.023142492986575138
aF0.0005416535418693791
aF0.06497131334189829
aF0.0374187626040939
aF0.056283117717520266
aF0.09472635105841444
aF0.08576672789475662
aF0.08952629183601163
aF0.04272172561231839
aF0.04018628743485511
aF0.021522325989311388
aF0.08017432798087187
aF0.062404784445300364
aF0.12799040628120634
aF0.1391965283156149
aF0.08377719651275886
aF0.16400507797813393
aF0.10982993460234512
aF0.023855033508770437
aF0.09072579120546158
aF0.06159558186588652
aF0.09827782468965857
aF0.0709047717232291
aF0.08812889417407034
aF0.07059668847178709
aF0.051104103973142134
aF0.07343547180925579
aF0.04014359552841934
aF0.031831049670249224
aF0.033561415519788335
aF-0.013622027719653674
aF-0.0033219112765031514
aF0.024498536230650757
aF-0.05564084374799452
aF-0.03841160617114959
aF-0.08234343190137118
aF-0.0651794393232989
aF-0.009434853169447917
aF-0.09533063508517937
aF-0.01718630026922624
aF-0.03012172030929376
aF0.06539905426414536
aF-0.06476307332961412
aF0.050528934970631594
aF0.006007314688341631
aF0.004111357876869115
aF-0.0055239666755631245
aF0.016231033906128855
aF-0.0020020558187277583
aF0.015492871656077338
aF0.01661584156918196
aF0.011161189028341408
aF-0.01489628887217842
aF-0.028467284178875882
aF-0.011887006985091946
aF-0.04581586004489161
aF-0.024173815000560667
aF-0.011634015014702303
aF-0.08366562436064234
aF-0.020652234001212556
aa(lp27
F0.0024238379002475496
aF0.001671859004425141
aF0.0030652278238451755
aF0.0018165642854954841
aF0.0021863608402910664
aF0.0019945255566472275
aF0.003224242746849824
aF0.002611247940863894
aF0.0020491117032892924
aF0.0033310821303709943
aF0.0028701601997122546
aF0.0018157386457451927
aF0.0012158071470234136
aF0.0008542989490184982
aF0.00024651422727960126
aF0.002901871535188721
aF0.0020934180349589685
aF0.00380534529672377
aF0.0023154411538149075
aF0.0015912590774180082
aF-0.00036173737070899225
aF-0.0013487450141731181
aF0.0003346181084369974
aF0.004496783524141756
aF0.0045243156613225905
aF0.0043595235216048875
aF0.003310129729432245
aF0.0038330573058926354
aF0.004077489923328295
aF0.005170963711144518
aF0.00357228801802287
aF0.000570952294140968
aF0.0037308368390281204
aF0.0060362200791971
aF0.008361381347921179
aF0.009280895434861904
aF0.005140297536302203
aF0.004814544500850056
aF0.005227754420822452
aF0.011061765428070332
aF0.00717357392476818
aF0.01017695039506949
aF0.001378581135488547
aF0.005003710310095147
aF0.006177071880178254
aF0.010128764835610706
aF0.007764856389992827
aF0.0020922602860031186
aF0.001297691495575022
aF0.0006803126022780542
aF0.005506635687606441
aF0.0035599118078185766
aF0.0005081759698307879
aF0.0009669039944768012
aF0.002124570169498429
aF0.0025167862362932537
aF0.003185327200581331
aF0.000824602008015678
aF-0.00031712931409613607
aF0.000278243323624838
aF0.0005245765635182436
aF-0.003078513636240887
aF-0.00023338733276872446
aF-0.0006048288500167248
aF0.0046467075695222695
aF0.004568192580911542
aF0.0018260578825130388
aF0.0010612943822084309
aF0.0023927548815522153
aF0.0016165410097659146
aF0.0049120037188227555
aF0.002899341452027647
aF0.00460392377879428
aF0.0016483195686065684
aF0.0031931489628462275
aF0.0050264486757919035
aF0.005099626280167631
aF0.003587456534734486
aF0.002479053400124471
aF0.0011321045039711553
aF0.0038974953461003393
aF0.00718543893205186
aF0.0036107716502496333
aF0.006155254595233278
aF0.0020546192299416145
aF0.003925493879485594
aF0.0014315564886270597
aF0.004503443417138668
aF0.00596063351566186
aF0.0014077589853855373
aF0.004277742394478194
aF0.00395247980979264
aF0.005402069151123382
aF0.004601300976771873
aF0.00460937521086782
aF0.004074012134077517
aF0.0043761777426892835
aF0.0029764604564241214
aF0.005691639758201074
aF0.0007477411672101533
aF0.004569482331760181
aF0.007362226094840505
aF0.010681214187378461
aF0.004190178775587591
aF0.0009617281288079745
aF0.0034428652156896365
aF0.004571174229098038
aF0.0059108798330873655
aF0.004290142625474468
aF0.009755154920089394
aF0.0077979441254332395
aF0.02010229220874727
aF0.01798120586594561
aF0.004407231721989246
aF-0.009734826235429582
aF0.004903691221202751
aF-0.0034894721342139715
aF-0.02980124998918967
aF0.01543538340394863
aF-0.008583959895930512
aF-0.020114439610679716
aF-0.022189467755525837
aF-0.031186375403860832
aF-0.024955333922239035
aF0.005554058911892837
aF0.006708065703556962
aF0.017341609295165927
aF0.011114577354571506
aF0.031867658038104534
aF0.03798168996308012
aF0.06285804519736718
aF0.06412604636097771
aF0.026396534606454927
aF0.06335572385599082
aF0.03708843474398371
aF0.11280604515772558
aF0.07066385550576897
aF0.12201703602118448
aF0.08002340057990624
aF0.059136653938555286
aF0.018080116912239163
aF0.05397014583140642
aF0.05910258009886325
aF0.026210556366759303
aF0.020416012013238328
aF0.002033569462305491
aF0.004431081292772916
aF0.010243721943418547
aF0.010527317002332972
aF-0.00418306211195479
aF-0.024124965127334783
aF0.0010899650855690384
aF-0.0037802193861847183
aF-0.012615465479108618
aF0.0008831608057554413
aF-0.007389322359696425
aF-0.010360144802127207
aF-0.01604652032043189
aF-0.014336646731545806
aF-0.022215961768023682
aF-0.03925658632038241
aF-0.010699687691564331
aF-0.05427698074647268
aF-0.04718728559619262
aF-0.03913974692016091
aF-0.03774361106814249
aF-0.05648668274276345
aF-0.027580289997665812
aF-0.03595513482445751
aF-0.029090818428546477
aF-0.036183786866741084
aF-0.005210020534968903
aF-0.010683279589265363
aF0.003600065681622043
aF0.01197850318418128
aF0.012952350680043873
aF0.010358549874234164
aF-0.005873968287783925
aF0.0037822901174997346
aF0.009522279492818855
aF0.019529789712057048
aF0.012522824779015135
aF0.008201307089092967
aF0.01835442192354418
aF0.018657438960996513
aF0.01906161262314998
aF0.019800111233324605
aF0.017778578960397844
aF0.009578564878115082
aF0.02704699154262225
aF0.02945350662130434
aF0.021427222844129335
aF0.011784784662093267
aF0.010473572173007198
aF0.005054017656550403
aF-0.005623513746123913
aF0.01132751681383807
aF0.009305915385197571
aF0.008684798512354631
aF0.009417682003454872
aF0.0034218975616018086
aF-0.00022696297239812783
aF0.007750800867488449
aF-0.003447702870534264
aF-0.0031859768831408288
aF0.0009001025711520595
aF0.01135642547032155
aF0.004100110946145704
aF0.010726571077199406
aF0.018547878932969317
aF0.012781463628668272
aF0.026848866687436676
aF0.005730183182002852
aF0.011554526972575013
aF-0.0017539262989290983
aF0.01654090264025251
aF0.008019310180923285
aF0.020718063835281943
aF0.008344303550859805
aF0.008790025967102138
aF0.003787580886259229
aF0.0029804113656565407
aF0.013690503224366034
aF0.013593108844628858
aF0.02042260872823653
aF0.004048870943446507
aF0.01712261780007038
aF-0.010330486981264198
aF-0.003936043084811542
aF-0.04036784183580361
aF-0.029749026939020054
aF-0.09341731241665537
aF-0.07526270874594793
aF-0.025556677163847304
aF-0.04129370143434771
aF-0.06349873378567776
aF-0.05459582381282584
aF-0.024912871993292517
aF-0.026006968899070802
aF-0.04699171347956701
aF-0.0291297046189678
aF-0.03175894388915716
aF-0.03526716141834774
aF-0.030120599688342662
aF-0.02148227584217822
aF-0.01860818110493859
aF-0.020025181436974824
aF-0.029600390910008486
aF-0.02799298472595006
aF-0.03925811426224623
aF-0.029719715636379936
aF-0.024578316026107605
aF-0.013532513504811283
aF-0.017234686956537577
aF0.00606918446647787
aF-0.029142320555950573
aF-0.002311635215778111
aF-0.006286687197357125
aF0.01270949018673459
aF0.03269311867248371
aF-0.0042414911593970485
aF0.028061887201138003
aF0.00023374239317277125
aF-0.0033226489095612346
aF0.014202356256305204
aF-0.039048463614641045
aF0.009929908347574007
aF0.0024324232333831175
aF0.03120977900653076
aF0.06613113380125953
aF0.06081281610394094
aF0.0798743159372167
aF0.02256790661911221
aF0.08793138492595268
aF0.09430341418724879
aF0.05928966282449946
aF0.04508692160424658
aF0.017422915399816545
aF0.06772381581760999
aF0.09958005333545927
aF0.1245756817858146
aF0.12128589028364792
aF0.1103622200569313
aF0.06476343358974251
aF0.059760033006168674
aF-0.006520180711856918
aF0.009295060278894816
aF0.018423490579223566
aF0.043105616526266766
aF-0.01351715493169793
aF-0.03150977916055426
aF0.014512291111373279
aF-0.005257404259473329
aF-0.015132259741782183
aF0.002928907607786715
aF-0.02469569408137971
aF-0.05369325524160917
aF-0.04292692645047561
aF-0.05711585386588224
aF-0.04396287820000329
aF-0.04131740510198769
aF-0.03741600502506052
aF-0.0895943226032471
aF-0.07414398526759405
aF-0.039870193945190625
aF-0.01532672443053359
aF-0.015425711699231827
aF-0.04512599922883199
aF-0.025135647677166
aF-0.058184825212721204
aF-0.04591829999668924
aF-0.026644800840953435
aF-0.06815753936529124
aF-0.028788785811273566
aF-0.04218698864444503
aF-0.07619751427136731
aF-0.05279076340437154
aF-0.07242234299610742
aF-0.0817349518492051
aF-0.01460343945448163
aF-0.06766039008301039
aF-0.050968833332703606
aF-0.05605522855090806
aF-0.04898631608150108
aF-0.06876460033455764
aF-0.06134701281473227
aF-0.029963130131672202
aF-0.07239285549658019
aF-0.03216448852847691
aF-0.08351142180216718
aF-0.05302757454489074
aF-0.0848358747196189
aF-0.060928259775886985
aF-0.09610411866520654
aF-0.09011473616456102
aF-0.10788976647204572
aF-0.07008689315161785
aF-0.12191079426865295
aF-0.09001144896380356
aF-0.06234021670326573
aF-0.058076222292795174
aF-0.036063423687557904
aF-0.03488349677896545
aF-0.0448576051363242
aF-0.032327240117334254
aF-0.016704993637014397
aF-0.05089090998738236
aF-0.06237592785475604
aF-0.00047654290341968844
aF-0.05260888244981864
aF-0.03712637824250474
aF-0.07433867530324709
aF-0.04431268784887674
aF-0.013565830100135543
aF-0.048857952960325766
aF-0.05998072027152001
aF-0.057101204642578986
aF-0.0058415872096724405
aF-0.051709896146029374
aF-0.04488481934858625
aF-0.02353054435313644
aF-0.01471629076644443
aF-0.048654893366078526
aF-0.04484830874454226
aF-0.0476312044463818
aF-0.013904293522410276
aF-0.022061708680135034
aF-0.010735623981636121
aF0.010607116340655724
aF0.01595141167041421
aF-0.024447431850601612
aF0.0016402077329084358
aF-0.0012878798466697977
aF-0.018001464012093273
aF0.023100838532043456
aF-0.028567837737572734
aF-0.005927890575845524
aF0.0008501443365524206
aF0.013894816901808455
aF0.014544439044412575
aF0.030793090504649002
aF0.0477586849597691
aF-0.007542642421191807
aF0.057175530400374146
aF0.01232676383836056
aF0.03738864044125163
aF0.029609713357353087
aF0.024358263729259377
aF0.0830815545497022
aF-0.004309607107022613
aF0.0646251557367514
aF0.05783663653846875
aF0.07273724643341418
aF0.04794092772087977
aF0.0646190989957934
aF0.08653281474095131
aF0.02569164517819112
aF0.014267850367727741
aF-0.0069776584126028055
aF-0.012953692294975118
aF0.044179493882791944
aF0.027344407678881678
aF0.059317519927008115
aF0.05155124389321284
aF0.01779482195298199
aF0.06187201712193215
aF0.022987826221718577
aF0.0746959475460319
aF-0.008682914424347661
aF0.023246586424054257
aF-0.004247386729496812
aF0.019854542963273127
aF0.07212390657509536
aF0.04208574332529753
aF0.0420623114690117
aF0.055385197937360665
aF0.0073816779532070356
aF0.015624633121004611
aF-0.016666818640921077
aF0.0008696836329299155
aF0.0015915668231627988
aF0.051889643879480536
aF0.04166705697892828
aF0.09340381596897993
aF0.012988968676447221
aF0.06773356134972189
aF0.10316189492178902
aF0.045053331514015416
aF0.04386330531449698
aF0.0001668445926956812
aF0.05813483005773277
aF0.08170870769566244
aF0.0435563091588537
aF0.03902630115503081
aF-0.07959052792090252
aF-0.0404851202810048
aF0.0009838334499728465
aF0.0006776772063654012
aF0.003977502740885188
aF0.017289839394898393
aF-0.04073519932753072
aF-0.06041548646821196
aF-0.01975504259021264
aF-0.044994214385122064
aF-0.03416253293787583
aF-0.0002891643642093776
aF0.02012250080649576
aF-0.06843663345989043
aF-0.062485861758914574
aF-0.06411996265327727
aF-0.05229418879629631
aF-0.046693364686873406
aF-0.031143318224333565
aF-0.0016730458190660133
aF-0.06972350614190707
aF-0.03644491328629512
aF-0.0582203833580853
aF-0.10176521248169565
aF-0.09245473081156691
aF-0.09596389599045824
aF-0.05045638692083792
aF-0.05003579709425281
aF-0.025629089833408558
aF-0.09073717691491517
aF-0.06908298906833886
aF-0.14355771621175326
aF-0.1538221708055797
aF-0.09171626886893526
aF-0.18126108753516562
aF-0.12039075140426082
aF-0.024693692814168212
aF-0.0972032377415312
aF-0.06683861170807698
aF-0.10638134160574778
aF-0.07870591891839245
aF-0.10322634873979594
aF-0.08065615827944449
aF-0.06030661688749466
aF-0.08330628812723696
aF-0.045841292881335344
aF-0.038314782014004053
aF-0.04049024687448027
aF0.010658217059658526
aF-0.006248896630252936
aF-0.035343248524830645
aF0.048006812825135456
aF0.034112731692212454
aF0.07564165395287241
aF0.05487709549087387
aF-0.001972128967932367
aF0.08722188247640189
aF0.01145795992048078
aF0.02401771466276626
aF-0.07193879744531116
aF0.05900541624999218
aF-0.058492483475489646
aF-0.01814970498974971
aF-0.0071299940345868175
aF0.00030842077931391863
aF-0.022396141619567798
aF-0.008256225666722196
aF-0.023243811196483066
aF-0.03153769901468843
aF-0.01950836659291508
aF0.008669543078000733
aF0.019118639386578505
aF0.0034630631661522176
aF0.03582622092840766
aF0.010923662042574887
aF0.004549973318502235
aF0.07229395857527922
aF0.015743520483739185
aa(lp28
F0.001325591816408129
aF0.0009705181324781595
aF0.001855518633204534
aF0.0010766923067809422
aF0.001247063575628311
aF0.0011415177346459746
aF0.0019328733273525165
aF0.0015116850599129017
aF0.001152911967012432
aF0.001961288573535121
aF0.0017227690396500312
aF0.0009265250461846153
aF0.0007126108121241509
aF0.00033882599433114515
aF1.3894481749567551e-05
aF0.0016657455618585943
aF0.0011390193416335361
aF0.0022757523033724494
aF0.001377021444040374
aF0.0008666481304746453
aF-0.00042960181128627026
aF-0.0011440017224641744
aF-2.6245230415627764e-05
aF0.002733621688065189
aF0.002783838648814951
aF0.00263551723734614
aF0.0020134608047833176
aF0.002237524044691606
aF0.002446224782538374
aF0.003127361470945822
aF0.002129657543919128
aF0.00011101422416960431
aF0.002249474404008861
aF0.0036309048037154305
aF0.005211594694951875
aF0.00571017015303855
aF0.0031038181630445028
aF0.002817139723342817
aF0.0031205721330640323
aF0.006803161342891236
aF0.004302315379987907
aF0.006294405921891921
aF0.0005864896158920927
aF0.002998705118343406
aF0.003642214724202347
aF0.006247030054185337
aF0.004756118012716506
aF0.0010204930376210995
aF0.0006346688005549804
aF8.667036239628847e-05
aF0.0033262964739094766
aF0.002043188242770374
aF4.495656134619004e-05
aF0.0004908044133713904
aF0.0012133337107861507
aF0.001418609542360752
aF0.0018331234032370708
aF0.000330068158279289
aF-0.00045218279583851816
aF9.639606677527124e-06
aF0.0001125369622428908
aF-0.0023656836306241015
aF-0.0003231766793120813
aF-0.0008042319473413256
aF0.0027469740215131035
aF0.0027293328201361705
aF0.0008713555272028469
aF0.00043886131590713685
aF0.001234098070180589
aF0.0007186601671334862
aF0.002805163903227282
aF0.0014849719765814816
aF0.0027509575879055346
aF0.0006577219325668908
aF0.0017951328301932926
aF0.002967204379808412
aF0.0031056555414336355
aF0.0020135141544327106
aF0.0014858662433857922
aF0.0003677840772781222
aF0.0023037130802127225
aF0.004317190729533119
aF0.002016068531410666
aF0.00365465251640006
aF0.0011645973285403582
aF0.002269091050981854
aF0.0006745997495939213
aF0.002579329888322215
aF0.0036352475872235917
aF0.0004295611910613872
aF0.0024345866054228307
aF0.0022314330864809597
aF0.0031917009538529307
aF0.00273244420027128
aF0.002725935642773392
aF0.0022684747594164415
aF0.002433868279103995
aF0.0014628504653263561
aF0.003337568073509749
aF8.679007885096066e-05
aF0.0026409382678233765
aF0.004323926042217012
aF0.0064046912396454195
aF0.002347408328242599
aF0.00024419274628437686
aF0.001987927714747768
aF0.0025510874037063557
aF0.003404153743298918
aF0.002329660732657829
aF0.005770710164570415
aF0.004402385930617541
aF0.012286502372786676
aF0.010747032277438276
aF0.0010913234670009884
aF-0.008605607672742778
aF0.0012424860132180967
aF-0.005921622285632066
aF-0.023262193982831973
aF0.007913352817785504
aF-0.00809973225878735
aF-0.016650038345737164
aF-0.016622489252497864
aF-0.023226008246299917
aF-0.019687201333407373
aF0.0009399945154169195
aF0.0007063122400966326
aF0.007133633856554141
aF0.005215104907548333
aF0.014730192507341915
aF0.020292279857212873
aF0.0359770019301174
aF0.034753337729926746
aF0.012301721710074261
aF0.03535175928536428
aF0.021106835492693956
aF0.06618047658979967
aF0.041549877763602514
aF0.07277020116259805
aF0.04856389442797467
aF0.034981869888953375
aF0.008063061613646737
aF0.03173184210960997
aF0.035408603656234786
aF0.014177357845161036
aF0.01141236900208947
aF-0.0005375346090085296
aF0.000917414448099218
aF0.004387485418246152
aF0.005133051999425301
aF-0.004619737252585643
aF-0.018144649102264085
aF-0.00043082384280612805
aF-0.004039668985704526
aF-0.00993721291915757
aF-0.0006317766188011021
aF-0.006564144996640748
aF-0.007905807748742728
aF-0.012506819612367982
aF-0.011056608069545325
aF-0.01636443820504025
aF-0.028714557686425796
aF-0.008540829200438409
aF-0.03884520977693306
aF-0.03405585969992659
aF-0.028496996463447825
aF-0.02711543067167521
aF-0.04025786761212787
aF-0.019991922321746746
aF-0.025648638948207604
aF-0.02077044374401442
aF-0.026237756948679334
aF-0.004934762103239213
aF-0.00863906023398531
aF0.0007017609806773381
aF0.0066189718250342765
aF0.00742845254780198
aF0.0056528859212978625
aF-0.005037825655324592
aF0.0012441576857427177
aF0.005182324282726689
aF0.01139801147177407
aF0.006877052663040579
aF0.004636938843169771
aF0.010757200007934349
aF0.010955293661150944
aF0.011284469136415027
aF0.01159761664926049
aF0.010294410908182691
aF0.0051655971171796385
aF0.016668117369437612
aF0.01782984081374482
aF0.013123838940632558
aF0.006521668077218835
aF0.005918959747819488
aF0.0024917975705454946
aF-0.0045446399034804515
aF0.006281584545368431
aF0.005017343855373733
aF0.005035513719302192
aF0.0047020388425033635
aF0.001247692789078208
aF-0.0012630841840688464
aF0.004123020530801865
aF-0.0031502372954233583
aF-0.0031824244396154383
aF-0.00032948326064184756
aF0.006623707122237944
aF0.001961281785640432
aF0.006193183946364522
aF0.011245177254513872
aF0.007353236509692675
aF0.01642417495448897
aF0.002774615456857807
aF0.006306773430939674
aF-0.001742618255357891
aF0.009878847082359648
aF0.004259393684328223
aF0.012273018013745831
aF0.00439303344333278
aF0.0042465232229597066
aF0.0013274694037186312
aF0.0010555313558793882
aF0.0074900475607746955
aF0.008015953364373283
aF0.01158061937560572
aF0.0016442342294912691
aF0.009778953594690434
aF-0.008098547633692126
aF-0.0042043050569969
aF-0.02895019946574899
aF-0.022061773553914112
aF-0.06589289460743558
aF-0.054113282837175404
aF-0.01971590693590075
aF-0.030650292029385247
aF-0.04692629369980367
aF-0.03940732382210068
aF-0.018568478749040284
aF-0.02017695870275753
aF-0.03406038820581021
aF-0.022452016777613847
aF-0.02338967202806249
aF-0.027336324575947556
aF-0.022166346255646726
aF-0.017091376816685315
aF-0.01448769727602312
aF-0.015420970167421843
aF-0.02149956170327677
aF-0.02065442545323125
aF-0.028367512105003715
aF-0.021588917948195886
aF-0.01888708299516844
aF-0.011211660700228002
aF-0.014336409267406588
aF0.0004550299799807245
aF-0.022506400293219018
aF-0.005735612093595977
aF-0.00727144998219515
aF0.005282744412810513
aF0.017445504625623984
aF-0.00627687953926364
aF0.014033731537998997
aF-0.0024259922935825845
aF-0.0062121389828420645
aF0.006033851192490623
aF-0.02947863374474557
aF0.001521346784760982
aF-0.00208498900487873
aF0.014647086480509854
aF0.038311687960582146
aF0.035378098143599546
aF0.04677881778807205
aF0.010608397301500315
aF0.051961558406864554
aF0.057860899226146074
aF0.03459578291901051
aF0.024835955843010436
aF0.006669326976532588
aF0.040672237781331014
aF0.05995204196181217
aF0.0758836012400361
aF0.07412558860309364
aF0.0671371758474932
aF0.0382258750827054
aF0.03537066911697063
aF-0.00836937070795218
aF0.001648823102917927
aF0.007335321334298995
aF0.025110001812673498
aF-0.013223584302389653
aF-0.02539849522225496
aF0.005553983301411155
aF-0.007211439758586006
aF-0.013426351961234964
aF-0.0006062426878166674
aF-0.01886735249448724
aF-0.04030758786672143
aF-0.031664153072286455
aF-0.04226850067220813
aF-0.03384862095750742
aF-0.030830892088691362
aF-0.029161765194463653
aF-0.06471467017676509
aF-0.05340277061600907
aF-0.030505219669953152
aF-0.013556094734069305
aF-0.012489357346613411
aF-0.034952203249191766
aF-0.021333011325342602
aF-0.042228117366232935
aF-0.03657820962809818
aF-0.02233342597658615
aF-0.05001688843952015
aF-0.02489205864487047
aF-0.03300996806774905
aF-0.0552439315515568
aF-0.041157164264618816
aF-0.05346739974399159
aF-0.059582502035313886
aF-0.013879355230999401
aF-0.04939705589436669
aF-0.03774070353612285
aF-0.041800670551342525
aF-0.03624452080322307
aF-0.04929944228084685
aF-0.04481258450539324
aF-0.023375319842073704
aF-0.05180879651152591
aF-0.02458366629992435
aF-0.06047023308215325
aF-0.03895186377007078
aF-0.061242028020103825
aF-0.044498308484380605
aF-0.06904766999521074
aF-0.064659780720799
aF-0.07697678658781994
aF-0.050406862427853104
aF-0.08709647374966197
aF-0.06456870863036578
aF-0.04530516808073567
aF-0.04252326624091889
aF-0.026805562932885666
aF-0.026248156391096015
aF-0.03364810079001313
aF-0.024686729709802017
aF-0.015090737136124258
aF-0.03837835347593839
aF-0.04674655810956475
aF-0.0027661307150455778
aF-0.03869859943317167
aF-0.02795255129908239
aF-0.05238886324347428
aF-0.033192821806756825
aF-0.010776802563743849
aF-0.035482847195080276
aF-0.043654419562721244
aF-0.04110853827563404
aF-0.005561689313185951
aF-0.03769700513544427
aF-0.033458235471127466
aF-0.017876911013322755
aF-0.012188572982698393
aF-0.034970194018200625
aF-0.033440967034499405
aF-0.03520311244917251
aF-0.01261426119685218
aF-0.017939452899628595
aF-0.011987355558650143
aF0.004511783882863608
aF0.006087861510637623
aF-0.020350164669101337
aF-0.0018821776326473727
aF-0.00427362930043051
aF-0.014484744324589315
aF0.013178732997282694
aF-0.02138816509699181
aF-0.006315331010037706
aF-0.0014539226646236008
aF0.005059755539064696
aF0.0059697341464304944
aF0.016754093788017215
aF0.026663760425127064
aF-0.008011829948104633
aF0.03194384123403106
aF0.004169364187988304
aF0.018211273097888257
aF0.01338936845128047
aF0.011303158991520996
aF0.048717166875460786
aF-0.006411629725440075
aF0.035024045250705314
aF0.03366240503742394
aF0.04154155339906409
aF0.02445882697080021
aF0.036563250834792276
aF0.050143134656469364
aF0.011853397595460995
aF0.003719843325092141
aF-0.01042141439212171
aF-0.013267700285940704
aF0.02267025714154886
aF0.01356396065244447
aF0.03273395401114822
aF0.028185733191710517
aF0.0064591923059897985
aF0.03413786440053628
aF0.010945085794322292
aF0.04470826697142609
aF-0.011094587633481139
aF0.011180490468863463
aF-0.008022133620379214
aF0.00895788275375876
aF0.041849626470494256
aF0.022248053668480938
aF0.02064169323231391
aF0.031601337079399876
aF0.0009653873408088576
aF0.006662727621865393
aF-0.015748401865708424
aF-0.004348869379826678
aF-0.005111858983746674
aF0.02684504733521526
aF0.020886441542717828
aF0.055853007670572594
aF0.0030065880360681204
aF0.03910480221666821
aF0.0615142043757018
aF0.02525569305653126
aF0.02360868884264996
aF-0.0036636546727977113
aF0.033625541437166846
aF0.04809438342257051
aF0.02249170580588002
aF0.020772854062230856
aF-0.05908617032271934
aF-0.03150847234595476
aF-0.0020576437971524513
aF-0.003162618205604138
aF-0.001142906697323627
aF0.00830242713654977
aF-0.03171189980612301
aF-0.04406053255577228
aF-0.016662240662329863
aF-0.036269309272780346
aF-0.02969975201630199
aF-0.007594390287172718
aF0.00893534942822147
aF-0.05214217809974818
aF-0.04656832654099269
aF-0.04714630936421437
aF-0.03997430370181885
aF-0.03688585621860871
aF-0.02676086743351247
aF-0.005003963997120979
aF-0.051895590903171265
aF-0.027303216312609943
aF-0.042882083361296196
aF-0.07384070724004566
aF-0.06703428700101281
aF-0.06836705433223027
aF-0.037823767544351135
aF-0.03808584163789137
aF-0.02090881031106575
aF-0.06589084528617561
aF-0.05180738000550107
aF-0.10529682986430303
aF-0.11020648904600294
aF-0.06732615346485099
aF-0.12915086207549
aF-0.08749824599256978
aF-0.021174545883257814
aF-0.07069512891456593
aF-0.05087182070072821
aF-0.07768659471636537
aF-0.05805587202242251
aF-0.07548554775246379
aF-0.05979171026835505
aF-0.04557553486653446
aF-0.06113146386270189
aF-0.0349385029406094
aF-0.029249446486820013
aF-0.031347241713148705
aF0.0047732888384537835
aF-0.01000559904754961
aF-0.029929220575329207
aF0.025402746698227868
aF0.015204490672300187
aF0.04419916333096306
aF0.02991794463556966
aF-0.008584103701011796
aF0.0513749648449681
aF0.003646362342742999
aF0.010144990842578498
aF-0.052781351715863074
aF0.034475480168612016
aF-0.044673072547318046
aF-0.01873806965497676
aF-0.007953731041256424
aF-0.0044846214612791315
aF-0.019552940352435693
aF-0.01115354871231018
aF-0.01971889334839781
aF-0.02741655503757898
aF-0.01720821173412265
aF0.0024107659595079636
aF0.005984240555518121
aF-0.002988284830144391
aF0.015460522555164483
aF-0.0009886431930255508
aF-0.003108533453151193
aF0.03884705312919618
aF0.006285269545716297
aa(lp29
F-0.0017946304502305522
aF-0.0012113183217898667
aF-0.002204559324129821
aF-0.0013414407923498727
aF-0.0015935581249170653
aF-0.0014328044985923646
aF-0.002375112953685172
aF-0.0018623095527222498
aF-0.0014877771712741388
aF-0.002422261689960498
aF-0.0021069551635718186
aF-0.0013024641663288146
aF-0.0008619382686880454
aF-0.0006417730544331061
aF-0.0002909120874617721
aF-0.0021057952749609817
aF-0.0015394401778548873
aF-0.002787417040733143
aF-0.0017416532495067912
aF-0.001227956769834543
aF0.00017363803600078996
aF0.0006811137796332613
aF-0.000434912073520782
aF-0.003364371429879714
aF-0.0033020218533558487
aF-0.0033240533482282323
aF-0.0023758884692269056
aF-0.002822500941546085
aF-0.003063790802773253
aF-0.0038360500801889108
aF-0.0027342025179422796
aF-0.0005215261702453545
aF-0.0027743286302849943
aF-0.004312807682794593
aF-0.006078961822425451
aF-0.0068160608605478765
aF-0.003724894696333255
aF-0.0035353553450152807
aF-0.0038179333992445575
aF-0.008056141662288359
aF-0.005288139404139043
aF-0.0074060329492251385
aF-0.0011386680028283515
aF-0.003609114976827294
aF-0.004633886343139057
aF-0.007345158139062968
aF-0.005597931007290362
aF-0.0016325494449480327
aF-0.0009520693491951709
aF-0.0006878424830913781
aF-0.004056299516539695
aF-0.002703113985176017
aF-0.00039844171720871356
aF-0.000799998108017898
aF-0.0014582855226589297
aF-0.0018967541334038078
aF-0.0022328019045733303
aF-0.0006078800924124617
aF0.0002735973259270843
aF-0.00014509003347561232
aF-0.00045005291192233956
aF0.0021166947658963365
aF5.069213836307533e-05
aF0.0004571945566192289
aF-0.0035392962234390445
aF-0.003258379079733958
aF-0.0015023075858628721
aF-0.0007764056605208624
aF-0.001918710506799074
aF-0.001262131075701613
aF-0.0037786722937282907
aF-0.0021522790465341372
aF-0.0034638825744076926
aF-0.0013669273361187867
aF-0.00234166583899972
aF-0.0036765075258048388
aF-0.0037994979274784827
aF-0.0028379015596879877
aF-0.0017841347715878292
aF-0.0009936346776650352
aF-0.0028363940633947026
aF-0.005341861160558402
aF-0.0026626993817067844
aF-0.004468638350463256
aF-0.0014933235838335537
aF-0.0029546064610417914
aF-0.0011774489612320985
aF-0.0033435422552566874
aF-0.004371535134291007
aF-0.001189674646884743
aF-0.003111057373094618
aF-0.0030577916793377963
aF-0.004134531189159653
aF-0.0034639913427386595
aF-0.003222085770011766
aF-0.0032016154958770617
aF-0.003468123899012333
aF-0.002552570806811724
aF-0.004316605256621921
aF-0.000835968366995263
aF-0.003350226862124923
aF-0.005477856823898225
aF-0.007947138839101097
aF-0.0032350886840197663
aF-0.0007463504346871767
aF-0.0025252736685564482
aF-0.0033835394511052158
aF-0.0043612255902417425
aF-0.0031554690728153156
aF-0.007020645195679337
aF-0.005923861332807558
aF-0.014537110060136834
aF-0.013161961305373088
aF-0.004309708888721253
aF0.005513190224433328
aF-0.0045952338196497255
aF3.0411059273001947e-05
aF0.0180953881535058
aF-0.011866259808459215
aF0.004117105760111545
aF0.012481036648772608
aF0.014990021124364622
aF0.021409914010973627
aF0.01601291939557137
aF-0.0036565144270161638
aF-0.006026365074758208
aF-0.01550688264184855
aF-0.008890250585935004
aF-0.02375458776804352
aF-0.02934550478062937
aF-0.047034782507796406
aF-0.04727430330617441
aF-0.020808522505496974
aF-0.04733228117503482
aF-0.02862476714570874
aF-0.08161787611516212
aF-0.053400674938535606
aF-0.09189825004190669
aF-0.05955328996892276
aF-0.04398745465139336
aF-0.01341806970526627
aF-0.04046517558686267
aF-0.04268324665694703
aF-0.02127952619719391
aF-0.01568467555693104
aF-0.00187271718278191
aF-0.0037343698998672323
aF-0.008431843904889795
aF-0.00768511310371758
aF0.002326715217522989
aF0.016107159540778446
aF-0.0008945678555772907
aF0.0015271931723993294
aF0.007013897126373585
aF-0.0020178264484058844
aF0.0033870419420771705
aF0.006232472518385774
aF0.009898135869270781
aF0.009302324488431551
aF0.01466520516878167
aF0.025038015890133162
aF0.00598712315386982
aF0.03480035196689867
aF0.029735816111278488
aF0.024204534366909728
aF0.023552248847817238
aF0.035958679493753136
aF0.016943711666427885
aF0.022610464644033348
aF0.01830679441381994
aF0.023077103065819757
aF0.0021938705313374494
aF0.005937725540364025
aF-0.003491686604426486
aF-0.008824926402928028
aF-0.00957295829494155
aF-0.007775572942251504
aF0.004161112334272797
aF-0.002491690909142432
aF-0.0067283539495142505
aF-0.01406740742010124
aF-0.00947368753067923
aF-0.006218528702784157
aF-0.01323620658369745
aF-0.013229215268452506
aF-0.013161178993042425
aF-0.013973834088730408
aF-0.012872978061474916
aF-0.007040087856394989
aF-0.019732849684300693
aF-0.021771614704293268
aF-0.015817011117411878
aF-0.009159641410408913
aF-0.007814833810417579
aF-0.003982671167409325
aF0.0031269710115242612
aF-0.008774411553232397
aF-0.007332964166161242
aF-0.006576433944376518
aF-0.007274704903252077
aF-0.00289363845157664
aF-0.0002740098947064888
aF-0.005314276972846628
aF0.002517526801343372
aF0.0019700462090104535
aF-0.0010384119694602928
aF-0.008407641525522822
aF-0.0035902859880740387
aF-0.008321138722151249
aF-0.013968480318655576
aF-0.00967821061923464
aF-0.019806948114041947
aF-0.004948398656302665
aF-0.008753383254078017
aF0.000950704993890931
aF-0.012122133165937526
aF-0.00647288095946419
aF-0.015317766410319223
aF-0.006266171788121381
aF-0.006582124677884143
aF-0.0029168175229624268
aF-0.0023957975322304727
aF-0.010372690134967574
aF-0.010335423412768434
aF-0.015404911719626753
aF-0.0034377806061178435
aF-0.012782358602879379
aF0.00624350600289247
aF0.0021398322771292635
aF0.027015208414797497
aF0.018384851652414422
aF0.06213907647509492
aF0.050093446413316214
aF0.015105183734415904
aF0.024553065488412212
aF0.041119290104576676
aF0.03564212770914021
aF0.015982215374838894
aF0.016757092197018448
aF0.03239582743522497
aF0.01820410802621501
aF0.02068676658735653
aF0.023612037865156792
aF0.021112232346458166
aF0.01481242695071321
aF0.011214484826537289
aF0.01353264593695685
aF0.018794866830202393
aF0.017652235360098318
aF0.02611566984672099
aF0.02058073485560123
aF0.01706656288251663
aF0.008382744742291386
aF0.010371950969656926
aF-0.006630252265304873
aF0.02095188541911324
aF-0.0008412671564641146
aF0.002656309694753533
aF-0.009564951754503316
aF-0.022755390676082225
aF-0.0007875810748819452
aF-0.02219579945420957
aF9.069150373026023e-05
aF-0.00041637977943903234
aF-0.012463454077138048
aF0.02485112831659869
aF-0.008648794958143084
aF-0.0039554731970482555
aF-0.024623294848624223
aF-0.04949426790111307
aF-0.0466587309693761
aF-0.059003914650123696
aF-0.01918045074287672
aF-0.06486916089789792
aF-0.0685199734498983
aF-0.04545325124634632
aF-0.034382813485353804
aF-0.014950180585443201
aF-0.049611067676960476
aF-0.07395284149035596
aF-0.0926618178372922
aF-0.09085523730674745
aF-0.08091494876236074
aF-0.04723682091262999
aF-0.04282323237432353
aF0.002652341388892315
aF-0.010274063386002097
aF-0.015838544793851148
aF-0.030909771476096033
aF0.00844460015878848
aF0.021337478814883477
aF-0.01066222380834374
aF0.0019265424835328844
aF0.008660876026200786
aF-0.003363948418424738
aF0.015828926032452558
aF0.035255561592159604
aF0.030233605194246494
aF0.03931901458943164
aF0.029488921016824113
aF0.029734148343095672
aF0.02636837174836834
aF0.060205436748992744
aF0.0484650047140788
aF0.024821816269491103
aF0.009288347079192334
aF0.011374967649626023
aF0.029399697618197034
aF0.01605616065534495
aF0.04025848370965221
aF0.030774055091168123
aF0.017010704078323096
aF0.04561485173157476
aF0.018873296712478508
aF0.028566190035301635
aF0.0517876663058159
aF0.034944819301202606
aF0.04830768026635736
aF0.054280974728254765
aF0.008892612716024399
aF0.04506168539121776
aF0.0335791068354451
aF0.03608619443211173
aF0.03215733437439123
aF0.04521893570254765
aF0.04040261470887959
aF0.018828950975461844
aF0.047819654023345114
aF0.019930152939513193
aF0.05318395232852416
aF0.03334412840937611
aF0.05422694616127013
aF0.03763585957177837
aF0.061241957859628264
aF0.05691131655227286
aF0.06929753515650436
aF0.04479457642883672
aF0.08014142850767161
aF0.060228073384146784
aF0.04271382225973367
aF0.04073674042958888
aF0.026355065111507436
aF0.02562847119605682
aF0.03169740145706413
aF0.023382426514072307
aF0.011453574518658492
aF0.032756864650140396
aF0.041144884559758295
aF-0.0018847846710675963
aF0.0329322531978292
aF0.02455456300665343
aF0.04830959245852557
aF0.027394751471407977
aF0.008502979595136259
aF0.032630866850340855
aF0.04152962144937919
aF0.038684714364617456
aF0.003405203710635793
aF0.035178597205323285
aF0.03135833630521151
aF0.014699409006519117
aF0.008734080973458513
aF0.034260492759820245
aF0.029198031033297524
aF0.03283321503038468
aF0.007881058905615652
aF0.01575428172792105
aF0.004224869657377413
aF-0.008072077959070645
aF-0.013567132474233164
aF0.01360258669485244
aF-0.0019453664580474518
aF-0.0008279202209497504
aF0.011930912951455349
aF-0.016540953054717276
aF0.01876089388912407
aF0.0034151062743692532
aF-0.0015720905042977383
aF-0.010765462635402031
aF-0.011447260258549431
aF-0.02418250596685158
aF-0.03566133369947293
aF0.005928417355938712
aF-0.042800510995386155
aF-0.01038016816921995
aF-0.027431672173005992
aF-0.02029391866129333
aF-0.019428017102829865
aF-0.06104632610594555
aF0.0012831602294293314
aF-0.05041835322844581
aF-0.04318066189308682
aF-0.053796688305725884
aF-0.037265675896547744
aF-0.049265032638205974
aF-0.06410232769061573
aF-0.020497305159116203
aF-0.013605057633441631
aF0.0012896960361353806
aF0.006756746588062655
aF-0.03593227650492986
aF-0.023474964613176903
aF-0.04262003653578539
aF-0.038847031829216803
aF-0.01767946836710429
aF-0.04593687529334557
aF-0.019341473212547613
aF-0.05446764296311087
aF0.003528771289290737
aF-0.0161185068615215
aF0.0015045557888802175
aF-0.015747169796266683
aF-0.052865243868476346
aF-0.03636394554435572
aF-0.03510478807379164
aF-0.0413505633647494
aF-0.009016653581419716
aF-0.014357771440734966
aF0.011937166064410955
aF-0.0013860444020461949
aF-0.005066026576898068
aF-0.03934934791991123
aF-0.03593480509068309
aF-0.06899776259662845
aF-0.00885047996427129
aF-0.04996945307340255
aF-0.07655387422155525
aF-0.03295340435953557
aF-0.03615054392431713
aF-0.0016851914580159571
aF-0.04171911441651443
aF-0.06045792622005451
aF-0.03174786480069343
aF-0.028994415089519873
aF0.04985557188173137
aF0.025135271103599876
aF-0.002801443888235408
aF-0.003176029001351969
aF-0.00330335021771818
aF-0.013095265833839236
aF0.02423845620620005
aF0.039861456312989374
aF0.01167320402161686
aF0.025506211639925388
aF0.01627377811919836
aF-0.004465393128089311
aF-0.013408919751253804
aF0.04689305598949515
aF0.043472181539349966
aF0.043929461284942094
aF0.03389640858932163
aF0.026985586581924865
aF0.018992869544263657
aF0.0020975650970375117
aF0.04984508336490337
aF0.028868872203481187
aF0.042624012665481464
aF0.07123130238605227
aF0.0645851834974814
aF0.06719820093270766
aF0.032751573455806246
aF0.030505275481099305
aF0.01733799808051863
aF0.05961758264327886
aF0.04750918040745968
aF0.09693278979415751
aF0.10400040741409342
aF0.0636826396794698
aF0.12149205827750055
aF0.08299553701547523
aF0.019881738274412673
aF0.06871970817980831
aF0.04811945729288881
aF0.07418198351819431
aF0.05407822188528739
aF0.06599210407335569
aF0.05368623186842222
aF0.0389792615786533
aF0.05496077753805505
aF0.031003966207943406
aF0.02399914884804888
aF0.02608983455341451
aF-0.008884352164988932
aF-0.00014589074158631251
aF0.020049343484128394
aF-0.03665287671158022
aF-0.023502318318615528
aF-0.05669770107794731
aF-0.04464864641769514
aF-0.0037850719653429376
aF-0.06569693754883348
aF-0.010808262123949258
aF-0.01843150604296788
aF0.04916653083303637
aF-0.04416878062900445
aF0.038615644240913266
aF0.006740658172600298
aF0.004190386808152491
aF-0.0014599653151996532
aF0.01313326552644143
aF0.0009767685024795105
aF0.012370577541769656
aF0.013542198751623245
aF0.009301133296367538
aF-0.009779138242535087
aF-0.017590506377458945
aF-0.0064126202429462395
aF-0.02919541452268029
aF-0.014472775454699905
aF-0.0055243322781909875
aF-0.05577531501668559
aF-0.013121411484410404
aasS'nips'
p30
I512
sb.