(itinn
Tinn
p0
(dp1
S'b'
p2
(lp3
F-0.09501902703605036
aF0.3306208927874884
asS'h'
p4
(lp5
F0.8026380843138948
aF0.8361382141158852
aF0.1141499619106232
aF0.37375397059168536
aF0.3701524180822568
aF0.24820120721186967
aF0.9018844153188637
aF0.62604507188089
aF0.6187145064621998
aF0.49452425254286597
aF0.28887029493120436
aF0.12860502749958555
aF0.48377711525885436
aF0.4702691075789003
asS'nops'
p6
I2
sS'nhid'
p7
I14
sS'o'
p8
(lp9
F0.9512240222298298
aF0.04632945501893353
asS'x2'
p10
(lp11
(lp12
F0.752719210452393
aF0.8705733442457011
aF-1.4004000206239235
aF-0.12694129782167582
aF-0.9276273397689263
aF0.42637146129462317
aF1.2713879186622397
aF0.3301376689433945
aF0.1876736789109053
aF0.5991146480288607
aF-0.4270232234812328
aF-1.1349680379101372
aF-0.08979392940330691
aF0.6444585455443178
aa(lp13
F-0.9417146009202694
aF-1.0422231733742247
aF0.9835674460550827
aF0.5424692686111241
aF0.09224849068713004
aF0.22056351144283134
aF-1.3290606404270209
aF-0.6721898735099544
aF-0.762755335938923
aF-0.1992123195706033
aF0.7633078956233016
aF1.0803716629379045
aF-0.5055275231095209
aF-0.12713798110938418
aasS'x1'
p14
(lp15
(lp16
F0.0027983083450821926
aF0.0019014879474800192
aF0.0034425023350790826
aF0.002038779565387297
aF0.0024799937603277623
aF0.0022513149449887395
aF0.0036470671053834337
aF0.0029418611895451396
aF0.0023612199277595167
aF0.003716551738296763
aF0.003170799194347355
aF0.0020780856024061097
aF0.0013183798124482976
aF0.0010648255669439847
aF0.00039258885459461933
aF0.0032680504221525766
aF0.0022773573229420887
aF0.004247123943945407
aF0.0024994720082796664
aF0.0018106698137337434
aF-0.00025069994512547474
aF-0.0010200545923520178
aF0.0006378085667038241
aF0.005155896689919877
aF0.0049920294118255895
aF0.004977074047660599
aF0.0036156232777115865
aF0.004328202332101657
aF0.004670542093051603
aF0.005857488494191939
aF0.004141419780983118
aF0.0008907027674748776
aF0.004261096759205249
aF0.0067165393938470085
aF0.00928443033926494
aF0.01033357593214495
aF0.005697929732525838
aF0.005392310221052497
aF0.005855032816796732
aF0.012306878320175218
aF0.008059166955615232
aF0.0113172671264055
aF0.0016708511406472223
aF0.005590934515885943
aF0.00698976592851955
aF0.011227829820440766
aF0.008586211735099755
aF0.002454160700559894
aF0.001508415503014164
aF0.0011556874133445557
aF0.006208172066949185
aF0.004180109760039842
aF0.000757614379843033
aF0.0011919074716450423
aF0.002291628285300995
aF0.0029324411842455256
aF0.003502099545910392
aF0.0010807415778464247
aF-0.0002632288194283123
aF0.00037294043487001564
aF0.0008175709384021043
aF-0.0031268053057586813
aF-5.538937634398934e-05
aF-0.0005475358492783659
aF0.005252519678596338
aF0.0050175810743616775
aF0.0021532766096721387
aF0.0012194662806154083
aF0.0029526970691165634
aF0.002074836205673881
aF0.005721417521492323
aF0.0033007747415050737
aF0.0051066121191148854
aF0.0019263452159680396
aF0.003572999045169845
aF0.005587765602165185
aF0.005723519482733426
aF0.004295614540262174
aF0.0028035332006365295
aF0.0015120750548725127
aF0.0043170394175099875
aF0.007985114756103955
aF0.00405041462142484
aF0.006798791669617701
aF0.0022992131067457455
aF0.004478121232771285
aF0.001799550578248538
aF0.005143012583967152
aF0.006704529464520524
aF0.001956754302722789
aF0.004751961788735122
aF0.00456328079767618
aF0.006232868694677337
aF0.005346724227012521
aF0.005080798810965838
aF0.0048208940106630955
aF0.005157839789343683
aF0.0035141474435936926
aF0.006393337839119351
aF0.0011167859749691262
aF0.005135681018686
aF0.00824841405369807
aF0.011960643304670122
aF0.004876324141118758
aF0.0013341645611119246
aF0.0038447085717102317
aF0.005001031203911136
aF0.0066977616619528545
aF0.004795723684745048
aF0.011006426070410552
aF0.009069958337342943
aF0.022344023436377206
aF0.020427359113013757
aF0.007090738881591098
aF-0.0072763674246690245
aF0.007605088672062985
aF4.380071464399758e-05
aF-0.027032044884597074
aF0.01894061526916868
aF-0.005871515372674693
aF-0.01762303493475515
aF-0.02153458480602703
aF-0.03166797644084736
aF-0.022153925229559012
aF0.007790772659392132
aF0.010853112350008354
aF0.025289712077795453
aF0.01382211188133548
aF0.03951258868825579
aF0.04544885601459385
aF0.07401229244112115
aF0.07421962796987627
aF0.03363794058326216
aF0.07476902015595138
aF0.043754946906460236
aF0.12738372688543176
aF0.08096069467842736
aF0.13898061902381428
aF0.08915456329420866
aF0.06714723092088692
aF0.020091696081638664
aF0.062141118006550984
aF0.06500231692620725
aF0.032576091857488894
aF0.024165588759336675
aF0.004040126998821213
aF0.005314298976473531
aF0.013518473679950722
aF0.011990042919803852
aF-0.0022254368624736597
aF-0.02415029786631325
aF0.001765145251694034
aF-0.0018555882009788588
aF-0.011177004715803952
aF0.0030480661598281298
aF-0.0052985213352535546
aF-0.009329126840110892
aF-0.014501370476599527
aF-0.013847573881449134
aF-0.021877914539485337
aF-0.038189388594155514
aF-0.008762756909217942
aF-0.05314413467116003
aF-0.04487424732423526
aF-0.037054257778618344
aF-0.035710093201063796
aF-0.05461548327882131
aF-0.02531325959633753
aF-0.03479520141835551
aF-0.027324943414870375
aF-0.03528998668236713
aF-0.003673728439268479
aF-0.009157327716811749
aF0.005596828517747714
aF0.013813117097859269
aF0.014896714555248823
aF0.012226740399504929
aF-0.005870738803700662
aF0.004773533023323677
aF0.010798693094307928
aF0.022051162907329534
aF0.014808133123208615
aF0.00948546560601755
aF0.020599836845621437
aF0.020650371382753295
aF0.020797298605195733
aF0.021844393723496294
aF0.01990465444627836
aF0.010883797331945966
aF0.030011841522426266
aF0.03313127550080174
aF0.02415429098686761
aF0.014083916220286012
aF0.012352949877581
aF0.006217126649179933
aF-0.004718294576624652
aF0.013583938836606873
aF0.011207316219002731
aF0.010054107343807033
aF0.01142382186595544
aF0.004785805803396577
aF0.0007631025374508183
aF0.008718307280529617
aF-0.0033584664717717224
aF-0.002397912899440925
aF0.0017653666846743396
aF0.013013031073496736
aF0.005441290179543888
aF0.01272051779151802
aF0.020972095066739947
aF0.014593873903801551
aF0.02989104306411748
aF0.007551754749895376
aF0.01339723401492162
aF-0.001343399614751197
aF0.018600455179777344
aF0.009679705093512209
aF0.02330707207298999
aF0.009701384939402686
aF0.010275375056757095
aF0.0047728335574387945
aF0.0039157363846045535
aF0.015979550743566495
aF0.015300679203955106
aF0.023404859530266123
aF0.005445878164169845
aF0.019339336752388372
aF-0.009129500119544389
aF-0.002194712785994655
aF-0.04097756224699313
aF-0.028861464754191598
aF-0.09247503467778778
aF-0.0757063319597658
aF-0.022443633551992057
aF-0.03965907412058385
aF-0.061310488637554776
aF-0.05201644316632917
aF-0.023098697355286326
aF-0.025127781947350786
aF-0.046167010053848406
aF-0.0261224823516983
aF-0.030862845410052825
aF-0.03370595094057873
aF-0.031630434026173444
aF-0.019890952715974002
aF-0.016949137558019585
aF-0.019143161488051206
aF-0.028039458907488823
aF-0.026585241860464223
aF-0.03881031064983472
aF-0.030164073354951613
aF-0.02401107570019695
aF-0.011876367055914782
aF-0.014948820857240289
aF0.011411355942753413
aF-0.030179881534305116
aF0.003722498039017314
aF-0.002785606850395187
aF0.016224522801075784
aF0.03699564752458566
aF0.0010642325056617987
aF0.035598616408991667
aF0.002042282592262571
aF0.0014143470191065547
aF0.019417785268798553
aF-0.037080426351699725
aF0.01433643298492266
aF0.0074939487846151015
aF0.03803063285843006
aF0.07522863236837576
aF0.06920743988888542
aF0.08944909958465393
aF0.028228278966479548
aF0.09966927013844716
aF0.10465229615216114
aF0.06976386879351582
aF0.053923180772143586
aF0.023048387814370436
aF0.074758579935
aF0.11226902536247967
aF0.1397696971840751
aF0.1381460962495105
aF0.12297685172093406
aF0.07257303289165705
aF0.06576304020599025
aF-0.0016614574860212184
aF0.014078364620434037
aF0.024800453296879604
aF0.046603032042996276
aF-0.011099428935459075
aF-0.030509240354321218
aF0.01914724383692402
aF-0.0015496994417607626
aF-0.012491182667510531
aF0.005330153894863756
aF-0.023322397842854888
aF-0.05165673707158138
aF-0.04301328178214079
aF-0.055855387772898356
aF-0.04387910848566957
aF-0.04112942659494885
aF-0.03900643529340181
aF-0.0891369776106225
aF-0.07327880039364043
aF-0.03707577979818888
aF-0.011722152752550178
aF-0.016859724607083855
aF-0.043085763967239524
aF-0.023156048470841416
aF-0.057743463759029764
aF-0.04455289293822865
aF-0.0237564857067407
aF-0.0662316363432043
aF-0.02799933512517815
aF-0.03979943035142057
aF-0.07542131000940007
aF-0.05204260573397882
aF-0.07022066324582193
aF-0.08083559784056395
aF-0.01045748495505022
aF-0.06729836551009649
aF-0.04887901685525649
aF-0.053442787163078175
aF-0.049139478653168187
aF-0.06763540039727348
aF-0.0586162105578809
aF-0.029013905518443628
aF-0.07245328945118644
aF-0.027840403350368245
aF-0.08081331825080264
aF-0.05019036925904411
aF-0.08153639180575713
aF-0.05598127248833712
aF-0.09509399375755512
aF-0.0856209784252164
aF-0.10432139370113276
aF-0.06832837415751289
aF-0.12176989956587278
aF-0.08997090884151976
aF-0.06376500425229631
aF-0.05834184589986966
aF-0.03904688887759461
aF-0.03536921320382691
aF-0.04410374199825223
aF-0.03287013579403031
aF-0.014864033242194591
aF-0.05078400496467335
aF-0.061271360363351936
aF0.002460800991100085
aF-0.05215440048246978
aF-0.03603635999620669
aF-0.07082659410333286
aF-0.042287018879118635
aF-0.012595376038994082
aF-0.04671589360504782
aF-0.06072422550113322
aF-0.058586543285733705
aF-0.004509027789229561
aF-0.05100962354440134
aF-0.04702131672629225
aF-0.022764277214111707
aF-0.012867456863751011
aF-0.049946085492972206
aF-0.04318084245382142
aF-0.04791034033275187
aF-0.00986960880254545
aF-0.02266122098716781
aF-0.005731675076229859
aF0.013574390163494593
aF0.02175947680640581
aF-0.01900346030542551
aF0.004828031597932078
aF0.0016829906324266682
aF-0.01675289157547741
aF0.02641817464793727
aF-0.02722771647726297
aF-0.0041295940923583505
aF0.0026922132683815593
aF0.017229476970663418
aF0.01852730620300771
aF0.03836014101212754
aF0.05613391757520476
aF-0.0066481020540285615
aF0.06818375304968124
aF0.01618366140781106
aF0.04617857720796251
aF0.035994861809449503
aF0.030932461155102915
aF0.0959330795029587
aF-0.001359659376277138
aF0.07809466071417853
aF0.06675344813190717
aF0.08389684208750364
aF0.05991236221631098
aF0.07562786750557168
aF0.09935548793349785
aF0.032049745636823064
aF0.022881908755444734
aF-0.0014582572152519358
aF-0.008356167105553255
aF0.0560848737194631
aF0.03455717835893563
aF0.06742647733046239
aF0.059532253843307674
aF0.02698365677125103
aF0.07022153527167165
aF0.030101225857554814
aF0.08392281000022775
aF-0.0032363038264265395
aF0.026726140686371677
aF-0.0006390239628579058
aF0.02415127502989438
aF0.0815861165069596
aF0.053580894665619605
aF0.05143174875863707
aF0.0642538840396142
aF0.013734177399418426
aF0.022419731394844898
aF-0.014963539569617365
aF0.0019807688395712627
aF0.008763037328443298
aF0.06110329434467192
aF0.05526862661709457
aF0.10644207392297551
aF0.018380277744380294
aF0.07829181575623143
aF0.11707985184807618
aF0.04997286180029887
aF0.055008500616167764
aF0.0029987387665753053
aF0.06558794690986765
aF0.0940231506674112
aF0.05216639161168804
aF0.046524898223739286
aF-0.07381821368144685
aF-0.03626593099527845
aF0.005489972469423232
aF0.005421576936728359
aF0.006863853605469266
aF0.019847883457949567
aF-0.03606024374446247
aF-0.056388993003954474
aF-0.017222749059227455
aF-0.03633516454163408
aF-0.028958480385542586
aF0.005161302215164598
aF0.023032974691473782
aF-0.06703798825476501
aF-0.061752821781813697
aF-0.062643682936946
aF-0.0483561254762004
aF-0.041544637853987744
aF-0.026930690230366938
aF-0.0008335510077657479
aF-0.06893025531320517
aF-0.040472488953517134
aF-0.06034848943712445
aF-0.10480239705572147
aF-0.09436792524242203
aF-0.09731907791261736
aF-0.049531289384785404
aF-0.04347591448970901
aF-0.023980504231485636
aF-0.08687166052507758
aF-0.06961396393415485
aF-0.14610212256570707
aF-0.15319810042887905
aF-0.09443806150394844
aF-0.1835633168760644
aF-0.12483180937154129
aF-0.026781159191228834
aF-0.10043554079549424
aF-0.07025327847136192
aF-0.10884419185647494
aF-0.08123768902092361
aF-0.09929493839945396
aF-0.07913857487277709
aF-0.05662382783851512
aF-0.08283589344174705
aF-0.04696966215758749
aF-0.03591597852176598
aF-0.036938100086005
aF0.013978852527351357
aF-0.0003004288323883795
aF-0.030384816163124388
aF0.05706776459756831
aF0.0390052470409039
aF0.08683568520376889
aF0.06498919870933527
aF0.00649301996972565
aF0.09845633632763404
aF0.018784560227087785
aF0.030951943935827887
aF-0.07271892952680577
aF0.06696258227992942
aF-0.05873535865909053
aF-0.009258160790490409
aF-0.0051464718626801475
aF0.005861291159806627
aF-0.02096424470022354
aF-0.0009778095648383992
aF-0.02023301742957909
aF-0.02093048811761116
aF-0.013181807833916443
aF0.015122373291863384
aF0.028926641369695767
aF0.00977587254820333
aF0.04687815330097213
aF0.0237468239984228
aF0.013156361991499567
aF0.08874272088471082
aF0.01995944070293733
aa(lp17
F0.0031441554392082505
aF0.002099534552273665
aF0.003839715320158748
aF0.002271599027000817
aF0.002797711634524841
aF0.0025412787435945762
aF0.004076529252326757
aF0.003290981647761512
aF0.0026327666291581144
aF0.004138609981680779
aF0.0035023603218393164
aF0.002344259344152937
aF0.0014584538434115344
aF0.0012540830716880392
aF0.00044428176868796786
aF0.003651722895377151
aF0.002519275121740515
aF0.004706544076395729
aF0.002738124873712648
aF0.0020102252993549436
aF-0.0002607808627297316
aF-0.001073449660251484
aF0.0007384702246866603
aF0.005722413116499204
aF0.0055178760758186835
aF0.0055270449098920845
aF0.003995545400870602
aF0.004836824950058788
aF0.00520156820102957
aF0.006546053158570757
aF0.004624699096886895
aF0.001052500139128889
aF0.00475802390649455
aF0.007511241554794444
aF0.010313139753751293
aF0.011504052837572297
aF0.006328451117894501
aF0.006040610575201984
aF0.006519500150208335
aF0.013722430925254154
aF0.008993121762546815
aF0.012611436586333563
aF0.0018961901874401117
aF0.0062477654782681375
aF0.007786848422710336
aF0.012489024222541395
aF0.009553811319143055
aF0.0027808330723114684
aF0.0017189987473327235
aF0.0013505812233221505
aF0.0069242284398779875
aF0.004682714505243727
aF0.0008982471068953895
aF0.0013482288457497581
aF0.0025654911842828347
aF0.0032772037577836395
aF0.0039233239933536244
aF0.0012300801146193489
aF-0.0002333312334494033
aF0.0004470644744047706
aF0.0009603598251784679
aF-0.003372046556975819
aF-2.849084140096699e-05
aF-0.0005167959253340619
aF0.0058624964367303
aF0.005596577259761407
aF0.0024366382585759272
aF0.0013971077179160956
aF0.0033322962771409784
aF0.002354041769643619
aF0.0064125630637566974
aF0.0037348404693772455
aF0.005704901048299602
aF0.002219548563388606
aF0.004011824284594146
aF0.006256256677515667
aF0.006371496273835615
aF0.004827296643537314
aF0.0031436403867447275
aF0.001776534945135323
aF0.004835613330169981
aF0.00892687885516173
aF0.004555367822173594
aF0.007618068034098701
aF0.0025796004735680255
aF0.00504358708296486
aF0.0020541339597423686
aF0.005797770016099605
aF0.007499336475656522
aF0.002292293109981756
aF0.005372945599025249
aF0.005150023197217553
aF0.007001558706651837
aF0.005993841848243009
aF0.005707228065829736
aF0.005417773720442033
aF0.005774671635329876
aF0.003965538837982173
aF0.0071341481285699835
aF0.001306933356251355
aF0.005775507683611127
aF0.009216521029938507
aF0.01336362225251855
aF0.005460712182462191
aF0.0015790691037673363
aF0.004286662548621163
aF0.0056008781394705
aF0.0075209087507960605
aF0.005448078286486586
aF0.0124067317040611
aF0.01024503582290822
aF0.025033205378299617
aF0.022917595889392038
aF0.008334028731633844
aF-0.007490258293121687
aF0.008951461512319433
aF0.0010271275863421312
aF-0.029004150418100665
aF0.02167876272217607
aF-0.005814886441063755
aF-0.01873929188261529
aF-0.023425133699469285
aF-0.03442200593612854
aF-0.023717469314075527
aF0.009338158538386078
aF0.012930893652462843
aF0.0293008840807757
aF0.015675901030722507
aF0.04576835136242816
aF0.0516150505440866
aF0.08371746774870074
aF0.08455940937554418
aF0.03865436038611753
aF0.08484793817942707
aF0.04901754549955583
aF0.14316562238037
aF0.09029494609630442
aF0.15538488097604297
aF0.09920908195559539
aF0.07531690432874505
aF0.022673502274377512
aF0.06896390156973226
aF0.07200463152708722
aF0.0361378752537569
aF0.02696825255250896
aF0.0046801886117897205
aF0.005845332165060751
aF0.015040943759330641
aF0.013353615807231737
aF-0.0022528736298040456
aF-0.02643485220689172
aF0.0020716529827162215
aF-0.001819859698163289
aF-0.01213888103502842
aF0.0036796605552607917
aF-0.005579660583250098
aF-0.010215883022019218
aF-0.015680602433135488
aF-0.015022687369552047
aF-0.02388960222395259
aF-0.04175907636102751
aF-0.009395512200289663
aF-0.05829305791008047
aF-0.049084412527713395
aF-0.04052935969289598
aF-0.03907410136004815
aF-0.05982651357396555
aF-0.027584685961749313
aF-0.03817454235605507
aF-0.02989455161443878
aF-0.038639401692704224
aF-0.003791053332354123
aF-0.00990873110893026
aF0.00654795877392785
aF0.015490322409228792
aF0.0166260230903609
aF0.013750540333602417
aF-0.0062691077806118385
aF0.005536743650642298
aF0.012073403270498556
aF0.024749711376241674
aF0.01672663154726215
aF0.01060843621385396
aF0.02313981867814307
aF0.02315089752090712
aF0.023254924442068427
aF0.024474759440647715
aF0.0223702951358644
aF0.012271331960536166
aF0.03340657251930625
aF0.037002740048904165
aF0.026909089421993836
aF0.015867282280015306
aF0.013954871105217643
aF0.007118680814332266
aF-0.005042766646080127
aF0.015368074587584562
aF0.012648584008742634
aF0.011241805492419165
aF0.013040890216165597
aF0.005576473900154576
aF0.00109856123436962
aF0.009939196870362415
aF-0.0035418404108497593
aF-0.0023877241990890217
aF0.0021679700976666764
aF0.014608529122913397
aF0.006159127230594422
aF0.014306989374424005
aF0.023445880910603373
aF0.01632976690910736
aF0.03336593844713138
aF0.008496035238136817
aF0.015156638418800243
aF-0.0013437265312360445
aF0.020853870924603786
aF0.010889419686317112
aF0.026133900052070707
aF0.010947695807159954
aF0.01176002439595391
aF0.005554312446321648
aF0.004572339252337653
aF0.01807830623146696
aF0.017093389655094358
aF0.0263968856503964
aF0.0062574266072110436
aF0.021868098281146168
aF-0.009803132912441025
aF-0.0019933925686219218
aF-0.04493295573896797
aF-0.03146832719283247
aF-0.10147773385481032
aF-0.0828935462217496
aF-0.024139843045500105
aF-0.043189669157738274
aF-0.06673485765817136
aF-0.056844748994660216
aF-0.024987529186880016
aF-0.027032963079056525
aF-0.05038989410829229
aF-0.027987973394435685
aF-0.03362116501971556
aF-0.036184891386759475
aF-0.03453501201195148
aF-0.02112694382938328
aF-0.01826708154423206
aF-0.020631008188143906
aF-0.03061104649908353
aF-0.028977656202227253
aF-0.042384353887242925
aF-0.03290206703963848
aF-0.025762997169739905
aF-0.012439887111111787
aF-0.015758938644680934
aF0.013776828427318219
aF-0.03267437372714038
aF0.005446401569758394
aF-0.0021693552017922175
aF0.01905207419325963
aF0.04238856459937176
aF0.0020003965693865754
aF0.040689291391465925
aF0.0029116243129777707
aF0.002771250044172205
aF0.022481723604764928
aF-0.04019051557904951
aF0.017291243104405826
aF0.009063456359765604
aF0.043500809505969386
aF0.08423033071558622
aF0.07733347317714863
aF0.10036849880913104
aF0.031727040769604725
aF0.11164903526922386
aF0.11654124503225995
aF0.07794404087996633
aF0.06084290937455973
aF0.02642683170874573
aF0.0831784026168643
aF0.12516522138565087
aF0.15552122404353333
aF0.15310671255637226
aF0.1361690926815243
aF0.08008905864809984
aF0.07306543319600017
aF-0.0010392360009167032
aF0.015468079232155174
aF0.02717092711096586
aF0.0514287406900047
aF-0.011682377539289395
aF-0.03303221336468889
aF0.021540651030814876
aF-0.0016408674072833076
aF-0.013554434150332207
aF0.00628555349056728
aF-0.025482975178297007
aF-0.05609657204227048
aF-0.04682946609786241
aF-0.06091147547848444
aF-0.047853640072422876
aF-0.045135321465888646
aF-0.04245836965624192
aF-0.0975030680479696
aF-0.08028984272907522
aF-0.04036912073517303
aF-0.012301068057416247
aF-0.01819839530413807
aF-0.04634102345490969
aF-0.02437871223522361
aF-0.06305538257538586
aF-0.04778267843954978
aF-0.02504628645288619
aF-0.07220091127607203
aF-0.02949967010699576
aF-0.04272891823143474
aF-0.08251667675857158
aF-0.05603747115135507
aF-0.07631029548415223
aF-0.08835658470874448
aF-0.01035290285258859
aF-0.07360339550343697
aF-0.053217076227521753
aF-0.058107163853437005
aF-0.05357092978263385
aF-0.07414928700768166
aF-0.06399701841223694
aF-0.03135551586651028
aF-0.07953248187605894
aF-0.029928549925970313
aF-0.08836964602161954
aF-0.05464047020229078
aF-0.0891827056633124
aF-0.06099614416502665
aF-0.10426004011229949
aF-0.09356627899296224
aF-0.11428593948516222
aF-0.07468072130376266
aF-0.1333629143757214
aF-0.09836100948470752
aF-0.06971837211037644
aF-0.06356249829846033
aF-0.04256933330371682
aF-0.038313127917584004
aF-0.04776975710105055
aF-0.035668627649028686
aF-0.015531987037778422
aF-0.05530241403612983
aF-0.06666366155089659
aF0.003350181412879362
aF-0.05688646053517543
aF-0.039056484229830914
aF-0.07764195100544978
aF-0.045912501950619425
aF-0.01352210076531328
aF-0.050910739592379746
aF-0.06614552928291544
aF-0.06418279819827097
aF-0.004547864511397144
aF-0.05553122396571805
aF-0.05127500651972689
aF-0.024828609041336228
aF-0.013634284447218361
aF-0.05458229785038982
aF-0.04698262174238308
aF-0.05207074034298628
aF-0.009880601288366025
aF-0.02435212564743047
aF-0.005095848708465233
aF0.015550062899531293
aF0.025431585200283345
aF-0.019873831155698258
aF0.006367982880552684
aF0.0028548344127065995
aF-0.017892695917422922
aF0.02995040679539672
aF-0.029565202562159096
aF-0.0039829726707468205
aF0.003293358286050245
aF0.020136229214775044
aF0.021482732624163395
aF0.04358899389323212
aF0.06393719200022561
aF-0.006464363206653384
aF0.07775982593812886
aF0.01907280398589151
aF0.05346719043991015
aF0.04216988857254143
aF0.035780776142037465
aF0.10859941694138489
aF-0.000724012071534419
aF0.0890380411638495
aF0.07519005573103058
aF0.09498074502508895
aF0.06851776728610298
aF0.08539117772414401
aF0.11207210404872048
aF0.036860569673920304
aF0.027101506562477735
aF-0.00013822942568917428
aF-0.008070136597007505
aF0.06382158571098255
aF0.03905204029824192
aF0.0762735699915385
aF0.06720327799494943
aF0.03076840576707151
aF0.07934148302188397
aF0.03398555289496621
aF0.093891213960557
aF-0.002594257910317648
aF0.030567314892925596
aF0.0005902541097722017
aF0.027494452797792338
aF0.09142282461743045
aF0.0598683374805707
aF0.05790255196764639
aF0.07182041624049135
aF0.01570748788313518
aF0.02537311167017004
aF-0.015789291764286808
aF0.0028366711796610103
aF0.010818477324560202
aF0.06873082938639063
aF0.06162404066120597
aF0.11868994957660339
aF0.021728726361433734
aF0.08714684036414469
aF0.1296201607277959
aF0.054554321564859454
aF0.06134876818387753
aF0.004214223356350378
aF0.07258543688052767
aF0.1038018527434321
aF0.05750450403358715
aF0.05158529781941079
aF-0.080551851578852
aF-0.03964937929714166
aF0.005833591330482939
aF0.005936204607225134
aF0.007571402051177696
aF0.02180991244032829
aF-0.039380346399626336
aF-0.061600644675156045
aF-0.018706098791339557
aF-0.03979496703648972
aF-0.03189302878049363
aF0.006155093687893399
aF0.025563029518965257
aF-0.07307723977605704
aF-0.06708941131740634
aF-0.06830914018742153
aF-0.05264397631054049
aF-0.04516150091923029
aF-0.02882795243331
aF-0.0003393086316604901
aF-0.07502865591088602
aF-0.043977299554150515
aF-0.06578966257505765
aF-0.11468955198521744
aF-0.10325479212841196
aF-0.10673888465064892
aF-0.05419167754383343
aF-0.04728073770963871
aF-0.025912961041177802
aF-0.09484433199889143
aF-0.07570631146537464
aF-0.15975287397223417
aF-0.16809283713773582
aF-0.10316166573361425
aF-0.20138844597934863
aF-0.13680217498913202
aF-0.028465523125076646
aF-0.10984450760199403
aF-0.0763501511837641
aF-0.11883570439845845
aF-0.08883058431420167
aF-0.10859015073483283
aF-0.08641215130300256
aF-0.06150390246300231
aF-0.09047609411825269
aF-0.05106775693771926
aF-0.03878317879217452
aF-0.03976911564284111
aF0.015996077429513676
aF0.0010627668948221018
aF-0.03234068343249885
aF0.06446175832652978
aF0.044645647671421346
aF0.0972021837416654
aF0.07321756580436622
aF0.008497885531340985
aF0.1103183753643257
aF0.021471982795870304
aF0.03592019693806745
aF-0.0793921325337332
aF0.07536692719515288
aF-0.06377096053512872
aF-0.008541665777025325
aF-0.0049161749578480645
aF0.007663572688840249
aF-0.02226972606030929
aF0.00011180969315771811
aF-0.021722670991185297
aF-0.021563210261346902
aF-0.01339475346710318
aF0.017584896309311163
aF0.03408939875809417
aF0.01200698055985558
aF0.054522737153436085
aF0.028983182672702425
aF0.01692566708969066
aF0.10174244879207596
aF0.023150504815690472
aa(lp18
F-0.0036987643013788093
aF-0.002336439628353967
aF-0.004440823243137201
aF-0.0026324203081066542
aF-0.0033348578404820634
aF-0.00303614458279181
aF-0.004758417057068377
aF-0.0038386902085934937
aF-0.0029881376782537545
aF-0.004840565398999325
aF-0.003968808163227368
aF-0.002724676588875301
aF-0.0016435514511106597
aF-0.001620912640700548
aF-0.00048635016464011077
aF-0.004283781575417564
aF-0.0030199233044028878
aF-0.005454155233573559
aF-0.0031585422022136606
aF-0.002311780116505225
aF0.000346422037333416
aF0.0012676495944084648
aF-0.0009514546990564916
aF-0.00659475850380517
aF-0.006459547658960181
aF-0.006460503285474413
aF-0.004664952466758809
aF-0.005687575083117991
aF-0.0061317018851550255
aF-0.007815359918705576
aF-0.005485744893063406
aF-0.0013223500452322835
aF-0.005639022761359236
aF-0.008995088874664972
aF-0.012076378928055801
aF-0.013493798052667438
aF-0.007341251490429374
aF-0.007106939972949734
aF-0.00780029526048519
aF-0.016261614318037722
aF-0.01081863437206611
aF-0.014827761389836814
aF-0.0023877754815513357
aF-0.007300107147155197
aF-0.00922435323928079
aF-0.014676340280212223
aF-0.011221531983250644
aF-0.0033578541949508354
aF-0.00199430497705266
aF-0.0016353353845873254
aF-0.008148925890534542
aF-0.005504617310228502
aF-0.0011250099063209178
aF-0.001590296782745909
aF-0.0030489338916449894
aF-0.003847705472881619
aF-0.004752911244291696
aF-0.0014809909630715754
aF0.00013981983858481908
aF-0.0006146915205561898
aF-0.0011425954759427652
aF0.0036570496435445136
aF0.00013047710908947987
aF0.00034754710103622867
aF-0.006921056676813533
aF-0.0066163703717953
aF-0.002935281821790279
aF-0.0016547918097585253
aF-0.0038582899492659753
aF-0.0027431246912041226
aF-0.007492742189983705
aF-0.004515866122040031
aF-0.0067006288098686
aF-0.00277616141493103
aF-0.004743866975234943
aF-0.0074219752672926975
aF-0.007434674812304719
aF-0.005605296998105926
aF-0.003709601127349693
aF-0.0021579566380195334
aF-0.005691339235920367
aF-0.010349335954825642
aF-0.005443676951993786
aF-0.008775988751007513
aF-0.003017234225202123
aF-0.0057768652347142705
aF-0.002375768612865235
aF-0.006795853832031122
aF-0.008710833032680209
aF-0.0026400812023947367
aF-0.006369925274385504
aF-0.006059708768107749
aF-0.008235957235652756
aF-0.006951906625368908
aF-0.006746096182383245
aF-0.00617280368828733
aF-0.006550130845121113
aF-0.004758267267462068
aF-0.00830847131715798
aF-0.0015872971942750072
aF-0.006819185327219655
aF-0.010740446366879621
aF-0.015561422619566553
aF-0.0062853942985833374
aF-0.0018189660831883778
aF-0.0049752204609917845
aF-0.006615597416765377
aF-0.008682099217295437
aF-0.006561379695143096
aF-0.014510996170197014
aF-0.011937157418242935
aF-0.02919836038309802
aF-0.026840057833754233
aF-0.009690803078025275
aF0.009652693714053445
aF-0.010356926222929635
aF-0.00216426479249025
aF0.03354233015048792
aF-0.02478955379978576
aF0.006673696915122311
aF0.023458214316102448
aF0.02806185011638196
aF0.039508744309844746
aF0.028522309809815405
aF-0.011685708202414822
aF-0.015212898258002039
aF-0.03411882154334364
aF-0.017502859278255695
aF-0.05523828021343395
aF-0.05896505002887279
aF-0.09772547749499301
aF-0.10015441157367903
aF-0.044904492958770456
aF-0.09756147735617363
aF-0.057180259584711866
aF-0.16778705383681794
aF-0.10549142577357283
aF-0.18061680028674995
aF-0.11589851039286996
aF-0.087162313572424
aF-0.026376510929618437
aF-0.07792524264602296
aF-0.08395983091290254
aF-0.04138419549929385
aF-0.030747052330493036
aF-0.004773193909870376
aF-0.006771088221265773
aF-0.015639208184965277
aF-0.015685440029415236
aF0.003931175918116391
aF0.030866737875153635
aF-0.0018372844911002497
aF0.0026006813447230237
aF0.01429255511172672
aF-0.004602600266644103
aF0.0073692296151417844
aF0.012559027640253873
aF0.0193270484765615
aF0.01832368479544598
aF0.027906223954307398
aF0.04997872961262653
aF0.011686901833934326
aF0.06952803401404643
aF0.058372289599711864
aF0.049056641245236655
aF0.046283159464697674
aF0.07137340062843248
aF0.0327422226400383
aF0.04600965373140907
aF0.03579767105090028
aF0.046252646799690086
aF0.004399925613018912
aF0.012089611510795406
aF-0.008036227062665156
aF-0.018386270148589748
aF-0.019456490443935864
aF-0.0165074380526058
aF0.006763787776059373
aF-0.006610900459663507
aF-0.014230204186442408
aF-0.029459768828210296
aF-0.019999955628041206
aF-0.012447139604364013
aF-0.02755643416427328
aF-0.02778179532474692
aF-0.027602844633904233
aF-0.028980728164104675
aF-0.026652196271402216
aF-0.01403670769031225
aF-0.038747169603167014
aF-0.043008459683967735
aF-0.03119100143160014
aF-0.018045577524016414
aF-0.016091756021589586
aF-0.007962271993231067
aF0.006354285559051541
aF-0.017591499665554882
aF-0.014380346228695865
aF-0.013051002108668143
aF-0.014953040769526162
aF-0.006712239439841761
aF-0.0011427569464444614
aF-0.01203102090975122
aF0.004175235503381589
aF0.002563814657388306
aF-0.002754399242322418
aF-0.01671482356493225
aF-0.006836875061140121
aF-0.01639445988064273
aF-0.027313827760241605
aF-0.019038518525103687
aF-0.03897989465579874
aF-0.009668714190849638
aF-0.017740197869439457
aF0.0015607898412383508
aF-0.02392945410093327
aF-0.01254261989540032
aF-0.030226001200938716
aF-0.012456931731858106
aF-0.013581965639291411
aF-0.005960356903243739
aF-0.005197372532624727
aF-0.020746479921192485
aF-0.020016553510089786
aF-0.0304474019016535
aF-0.006998165877715432
aF-0.025707699147204482
aF0.011834961636196222
aF0.003228995886487768
aF0.05278037502286594
aF0.03741006527952725
aF0.1214205166098057
aF0.0967623580733739
aF0.028618621031788482
aF0.04869920273125669
aF0.07887456934083346
aF0.06953559773353919
aF0.030107269086792034
aF0.031231405798042528
aF0.06122172630195899
aF0.03355994113372182
aF0.039604056169642195
aF0.04232516679811578
aF0.0395764402036649
aF0.024489812286574885
aF0.02115745602236377
aF0.023934644343913396
aF0.03654509009155475
aF0.03536752683791202
aF0.050290238499948875
aF0.03843784511558242
aF0.02912332545159124
aF0.013157414954162424
aF0.018329041324131955
aF-0.016906352505172223
aF0.038377455142492634
aF-0.005304431214680147
aF0.0032730094534904274
aF-0.024021656986948275
aF-0.05188383176471402
aF-0.002041329789518596
aF-0.0457942235421892
aF-0.003549267081588831
aF-0.004406346645413197
aF-0.026094019103467782
aF0.04663831848830965
aF-0.02115366227892235
aF-0.00890574203698222
aF-0.051199179686524515
aF-0.09533297263674445
aF-0.08881709126239844
aF-0.11729697049960087
aF-0.03648270903490371
aF-0.12995914927580623
aF-0.13639044835371766
aF-0.09082868243329481
aF-0.07068695027004909
aF-0.030415036350086574
aF-0.09597913766105949
aF-0.1456128496096774
aF-0.18197609520149194
aF-0.17628423842922475
aF-0.15785697795798911
aF-0.09085813791491801
aF-0.08449931848290583
aF0.0018236793538429189
aF-0.01430333565898017
aF-0.025839575045894906
aF-0.06011661607620574
aF0.01472666027429789
aF0.03855902113061446
aF-0.023178433460744743
aF0.0055196849577408445
aF0.018203137370518523
aF-0.007228722594685837
aF0.03126129272949171
aF0.06603399502082796
aF0.05477843968748648
aF0.07333147163087661
aF0.05739204734877581
aF0.0549777009091384
aF0.04952127961445986
aF0.11575898861337378
aF0.0942817171588609
aF0.049585353756162506
aF0.01638685239227813
aF0.01852752093383517
aF0.05323980811667776
aF0.02748878580947309
aF0.07461428918013943
aF0.05660692537527765
aF0.02888313929664971
aF0.08624174394469558
aF0.0322786541578498
aF0.04972422259602216
aF0.10020802680534008
aF0.06597308879446469
aF0.09041871908118
aF0.10721164527200934
aF0.013112223820341001
aF0.0893808736286543
aF0.06457478241841165
aF0.0705263561625216
aF0.06263368067708422
aF0.08882460868753526
aF0.07864338412884254
aF0.03646397464759273
aF0.09528155853131441
aF0.03667821010317764
aF0.10522778601055159
aF0.06333998910368221
aF0.1070209447794886
aF0.07208670315516934
aF0.12274759281436927
aF0.10971461517194872
aF0.1366992035443628
aF0.08624953291824
aF0.15633552092455139
aF0.11385245236744755
aF0.0820467963857937
aF0.07383251582245769
aF0.047753172610664245
aF0.04456031783682167
aF0.05615943755721032
aF0.042091212686171726
aF0.01928114333362677
aF0.06401542619737244
aF0.07921292111885123
aF-0.004620503468392558
aF0.06470636715771763
aF0.04567202310674709
aF0.09394675360916198
aF0.05446941361938677
aF0.01625335406599261
aF0.062097288328597205
aF0.07628308148443869
aF0.07606187258301728
aF0.0059196837625891206
aF0.06527827568640525
aF0.060244602701555766
aF0.03088572251299218
aF0.01623877207479276
aF0.06307870664477432
aF0.05748360993585138
aF0.06021225334461311
aF0.011915998027633368
aF0.028347502066513566
aF0.007013893485306271
aF-0.017610117652671776
aF-0.03083879629067387
aF0.02398636470518337
aF-0.008290827147536243
aF-0.0029708613880319685
aF0.021427787347749708
aF-0.0357147726203008
aF0.03462827737663042
aF0.00454554164476143
aF-0.0028138280820676764
aF-0.023846557275845285
aF-0.025178937311479896
aF-0.0506997346776453
aF-0.07740225528440883
aF0.005977049678880295
aF-0.09275177832385827
aF-0.023064265157974335
aF-0.0638979254477969
aF-0.05240682814113168
aF-0.043033990846563105
aF-0.12901566863542396
aF0.0012306172141600482
aF-0.10653459203694955
aF-0.08860967644997764
aF-0.11347321998154676
aF-0.08056633499128175
aF-0.10052665316502482
aF-0.1309730899864278
aF-0.0434953270395311
aF-0.029735438884659092
aF0.0020407440428730286
aF0.009885839580215758
aF-0.07256188769358944
aF-0.04545146513179464
aF-0.0897497405086305
aF-0.0781998269118616
aF-0.03263490263237073
aF-0.09409778546476712
aF-0.038300881331361704
aF-0.10814283358899347
aF0.00568127385054232
aF-0.035012960228597644
aF-0.001439518728435342
aF-0.030937623597291214
aF-0.10594382623929426
aF-0.06790671581064857
aF-0.06715946502326126
aF-0.08281134433900132
aF-0.016964027864034302
aF-0.027773760672767343
aF0.019697427849371233
aF-0.004176143935051119
aF-0.012999197420400845
aF-0.08024117903322067
aF-0.06886887860431293
aF-0.13970120289745055
aF-0.026578694862185465
aF-0.10070043937007539
aF-0.14515470584112916
aF-0.05824595483931392
aF-0.06823745224160391
aF-0.008351418617564221
aF-0.08380885474453195
aF-0.1177242270384293
aF-0.0636362016542808
aF-0.0577323409403305
aF0.09702015027643031
aF0.05029225580770168
aF-0.0025237779527584026
aF-0.0030267385460427476
aF-0.006808990140843646
aF-0.023657773398608365
aF0.049430235350220814
aF0.07552709338108364
aF0.02383465930831179
aF0.054400020241945776
aF0.03841686155457157
aF-0.007069004100976611
aF-0.02812663386449851
aF0.08707832515739178
aF0.07806796050032046
aF0.0818677392118124
aF0.06462000795350203
aF0.053911241234451464
aF0.03420432485763456
aF-0.0010605254776728484
aF0.0894988342153509
aF0.049320093143205165
aF0.07518492097680532
aF0.13329817780044567
aF0.12021630206412504
aF0.12769264882125145
aF0.06528982032663987
aF0.05848788317662191
aF0.03137750724473204
aF0.11376208689636556
aF0.08610968847693153
aF0.1870705078116522
aF0.2026214665668416
aF0.11919273122062747
aF0.23623446692379566
aF0.16085752467801245
aF0.029803162240473628
aF0.1289481696894984
aF0.0879431238592037
aF0.13672254735863668
aF0.10480920522628821
aF0.1306255134415579
aF0.10276862269631488
aF0.07329796584603386
aF0.10565689213543522
aF0.05929805117016249
aF0.04428304529068162
aF0.04864709233096368
aF-0.01824853978337488
aF-0.0009999912183448405
aF0.04024737471242623
aF-0.072289887384254
aF-0.051330772351577916
aF-0.11080497929235905
aF-0.08371045939501033
aF-0.006486841411253939
aF-0.12733494585061325
aF-0.02223794961057768
aF-0.040804517754982034
aF0.09193089588949799
aF-0.08659345523282833
aF0.07392186416857217
aF0.012610764284332592
aF0.004851602985000523
aF-0.006825499043714264
aF0.02377780385556804
aF0.004198175506117524
aF0.027272764776059007
aF0.0279340956978514
aF0.015556166449577304
aF-0.019646886078156327
aF-0.04104221482057657
aF-0.012205979249494452
aF-0.06577679989458081
aF-0.03527291851047026
aF-0.021658176239083952
aF-0.12193148906455259
aF-0.028048201695211713
aa(lp19
F-0.0009819498660732005
aF-0.0006600905281646977
aF-0.0013694778923451787
aF-0.0008329742847173557
aF-0.0009561726053858071
aF-0.0008481421487738176
aF-0.0014798757327800145
aF-0.0011059255001312977
aF-0.0008825059821033044
aF-0.001480617705124738
aF-0.0012873245805505775
aF-0.0006914013570814392
aF-0.00048204474497985384
aF-0.0003796511078448943
aF-0.00019519062868075807
aF-0.001314915304902937
aF-0.0008700459019914567
aF-0.001664635805272334
aF-0.0009827161407978274
aF-0.0006479155578502061
aF0.0002525629409177086
aF0.0004962466058332931
aF-0.00017666384321828878
aF-0.002205133351209801
aF-0.0020923648835942344
aF-0.002125431209310199
aF-0.0014233688912506052
aF-0.0016532997979739248
aF-0.001910031383273507
aF-0.002558067055887425
aF-0.0018269216235110982
aF-0.00032509807803939755
aF-0.0018784538752346744
aF-0.0027169531628407533
aF-0.003890682634463694
aF-0.0042860489195720875
aF-0.0022050843408808413
aF-0.0022284873107534984
aF-0.002309940853220222
aF-0.005218843809315054
aF-0.0032656856371816806
aF-0.0047660537244863565
aF-0.0005230493379401378
aF-0.0021684372646909944
aF-0.002752448165799646
aF-0.004581557439929847
aF-0.003465212214950624
aF-0.0008695255361833039
aF-0.0005167893100624125
aF-0.00016521406781445024
aF-0.002510533552958131
aF-0.0015500613059974762
aF-1.7146182448593222e-05
aF-0.0004417449934685031
aF-0.0007900552727264992
aF-0.0010689576436966465
aF-0.0012799909721421118
aF-0.00025667521735166346
aF0.00028967268038862835
aF2.6195853567190194e-05
aF-0.0001742613206766236
aF0.0017085502171658956
aF4.2292882354670226e-05
aF0.0005429631656467139
aF-0.002282306382682838
aF-0.0019805281199705487
aF-0.0007959918159039058
aF-0.0002699760962288662
aF-0.001078295913906683
aF-0.000550207849760163
aF-0.0023199145367453814
aF-0.0010912344857130082
aF-0.002175617274339789
aF-0.000655951771633714
aF-0.0013064026153331789
aF-0.002285465222644467
aF-0.0024835904151872972
aF-0.0018214119788608654
aF-0.0012036632178762004
aF-0.0005171017389514067
aF-0.0017075572427137937
aF-0.0034547338792853023
aF-0.0015403467161092656
aF-0.002841103672144083
aF-0.0008392977688551126
aF-0.0019500255950115192
aF-0.000740677139125671
aF-0.0021688841644449766
aF-0.0029352512841790764
aF-0.0006429801767364911
aF-0.0019628039151604027
aF-0.0020341557591088124
aF-0.0027901130646646112
aF-0.002342365082962283
aF-0.002061643613343217
aF-0.0018823703159301613
aF-0.002087188686791444
aF-0.0015193933756716246
aF-0.0026087909345665857
aF-0.00030369817310860447
aF-0.00210506418275126
aF-0.003300334484084422
aF-0.004986996995416725
aF-0.0019162596779326924
aF-0.00031566675311760293
aF-0.0014198400629509274
aF-0.001912179657869121
aF-0.002622461730108625
aF-0.0018969422458668776
aF-0.004550154055630141
aF-0.003729409594925014
aF-0.009606055214687116
aF-0.008512370045108787
aF-0.00249424111621301
aF0.004411283211415456
aF-0.002530653924110749
aF0.0009853941436641618
aF0.013271764187555985
aF-0.007824006913041668
aF0.0044960315852723195
aF0.009606679079626625
aF0.011405960243638364
aF0.0162202836710379
aF0.01331999588909245
aF-4.765723991424888e-05
aF-0.0027265736777522948
aF-0.009200820742129433
aF-0.005452938768135514
aF-0.01372302463185252
aF-0.018259891884922035
aF-0.029444319902372146
aF-0.02874350936081648
aF-0.01140628957744308
aF-0.03136098758320142
aF-0.017324462053461005
aF-0.05226308979539301
aF-0.033460211752334365
aF-0.0587159626296163
aF-0.037443500080207005
aF-0.027865507507607738
aF-0.006126619887045006
aF-0.024204334832139615
aF-0.02521933078511424
aF-0.011773690258486376
aF-0.010340784864604822
aF-0.0005828912825778006
aF-0.0006546043279772466
aF-0.0031423127026799936
aF-0.0029127556559063465
aF0.0035282872066219714
aF0.012267338592105916
aF-3.0449006309705887e-05
aF0.0019183210917108205
aF0.005353030969576198
aF-0.0008479734598649603
aF0.0029128049262930633
aF0.005036986718392597
aF0.007590664597756859
aF0.007006083309003278
aF0.010648835072722736
aF0.01771609766280979
aF0.0051547175887379
aF0.02495798282933768
aF0.021870349084091807
aF0.017851438524588127
aF0.01762377430347387
aF0.02575556589265399
aF0.01295863510857111
aF0.016297125585022314
aF0.01355705370941487
aF0.016800304008894783
aF0.0024892313136088283
aF0.004809615879382145
aF-0.0017344240516507493
aF-0.005410106847272008
aF-0.006048081910459712
aF-0.0045936419923731635
aF0.003788897049630729
aF-0.0002554101817359825
aF-0.003414411665729825
aF-0.008540063373977164
aF-0.00590862930250745
aF-0.004122307203106461
aF-0.008331684465391388
aF-0.007864697491263261
aF-0.007450552450167107
aF-0.008039522511523227
aF-0.0075158316641819
aF-0.0038595007133253013
aF-0.012483955481927253
aF-0.013950054218127166
aF-0.010063965817000906
aF-0.005742916418280469
aF-0.004970267903154852
aF-0.0024445826732113272
aF0.002371269620488544
aF-0.0057747251860895315
aF-0.004765175599726608
aF-0.004202728993220514
aF-0.0047777708085750764
aF-0.0015079680275788007
aF0.00025486945120977664
aF-0.003105698236237082
aF0.002281529795965257
aF0.002184911985573684
aF1.203550920552823e-05
aF-0.005371868900787733
aF-0.0020301367791921514
aF-0.005388273078602426
aF-0.009189671590932666
aF-0.0062602069072074445
aF-0.013131981739611191
aF-0.002879912948852694
aF-0.005688505451041325
aF0.000734244408863705
aF-0.007959681013209862
aF-0.0038714539718494425
aF-0.009856667194729123
aF-0.0036461449066542517
aF-0.0037823913262469357
aF-0.0014218796364577635
aF-0.001196857939012891
aF-0.006369139944140672
aF-0.006284826662285805
aF-0.009823247284235564
aF-0.0017061371034789324
aF-0.008275330295238885
aF0.0046314216848756876
aF0.0015863446641922903
aF0.0185133945193244
aF0.012693415564358868
aF0.043204866511757804
aF0.03494164130223849
aF0.012026973717444595
aF0.019014797029632522
aF0.029548917223027202
aF0.025663119917578286
aF0.011837973969667605
aF0.012270331739498042
aF0.022905936103277166
aF0.013587205064788558
aF0.015092715779869797
aF0.018227283000316882
aF0.015734508216508403
aF0.012495228556310887
aF0.008909485924393664
aF0.011013467034390906
aF0.013971079225663433
aF0.012492245336035379
aF0.018927095919920537
aF0.015086287946184692
aF0.012883641839320035
aF0.007041530519409604
aF0.007938212736094002
aF-0.0030883622813342323
aF0.01613896111220364
aF0.0009636370146190116
aF0.002918227819688878
aF-0.005072226813981345
aF-0.013501461280064395
aF0.0006373704513800824
aF-0.014841773449694938
aF0.0010833879737616864
aF0.0011038579234295114
aF-0.008073222878566775
aF0.01792579125468693
aF-0.00423733456614683
aF-0.0005265857930783807
aF-0.01351408979671405
aF-0.031288874673547566
aF-0.02869601850955451
aF-0.036699706655938004
aF-0.010198910191653077
aF-0.04173213716111029
aF-0.04463978528553779
aF-0.02904304803363078
aF-0.022232117925042753
aF-0.008044401063841453
aF-0.0300521667131443
aF-0.04745258767971974
aF-0.06029816683383171
aF-0.057818868321332755
aF-0.050326462813273576
aF-0.027722939173955748
aF-0.02588265182874606
aF0.004715787333622611
aF-0.0026973982548539597
aF-0.006022469077139017
aF-0.01714829478222615
aF0.007772508660686118
aF0.017413830829607502
aF-0.0035551603375675762
aF0.00497834294818279
aF0.008590588389669853
aF-0.0005835541711063371
aF0.011842022905634015
aF0.026177598060991382
aF0.022421121554753728
aF0.029438512321919526
aF0.02278710312666063
aF0.02388515727480952
aF0.021036368786690282
aF0.04328040779436075
aF0.03462497691433703
aF0.018267681010998398
aF0.007921462054867844
aF0.00952757684837779
aF0.021908439837594128
aF0.01310456691453655
aF0.03045813994141037
aF0.023607193748512664
aF0.014345539407976358
aF0.03364217756963888
aF0.014864489493136485
aF0.021880042629575484
aF0.036761852866347436
aF0.025174496943922726
aF0.03569917831112291
aF0.03888411668543942
aF0.00837061751459929
aF0.03251972605315241
aF0.025415043852999815
aF0.02673687116335935
aF0.02324450214865864
aF0.03253528561854929
aF0.029230949153678396
aF0.014190529207355836
aF0.03367344631709322
aF0.0156839806043855
aF0.038928904409119496
aF0.025971241594649436
aF0.040231650416053547
aF0.02999338526219268
aF0.04542870792016545
aF0.043509852520564794
aF0.05152623080342811
aF0.034823154808311704
aF0.058578948558515656
aF0.04488260737190161
aF0.03179480613550119
aF0.03077630408224884
aF0.019768177436746283
aF0.019078311377438928
aF0.023408077632209746
aF0.01745776791563743
aF0.009390860292058167
aF0.024220642154578666
aF0.029648285113805354
aF0.0002695293648977859
aF0.02389685271591839
aF0.017312525089235066
aF0.03466669652165448
aF0.019822297352473626
aF0.0060661829603395325
aF0.02329162996686584
aF0.030002287586103796
aF0.027013066934382636
aF0.002681217591798421
aF0.02640835445936092
aF0.02266013414895187
aF0.010661083844705375
aF0.0070545876213310345
aF0.025722856985396975
aF0.02032052054703064
aF0.02437800025567824
aF0.006879924161860467
aF0.012243066956264774
aF0.004626709992761071
aF-0.0035176119821283356
aF-0.006599126988221898
aF0.01204643648988866
aF-1.9374497385473047e-05
aF-0.00023723003835741087
aF0.009658208381180025
aF-0.01014140547140664
aF0.014179018799961357
aF0.003954556475766438
aF0.00021685326973431044
aF-0.005140764192805091
aF-0.005321124811105405
aF-0.01472563441644791
aF-0.02305780062391286
aF0.0062479029472549494
aF-0.027117573459336405
aF-0.005385864154245277
aF-0.016438205807349646
aF-0.010995136164485667
aF-0.01198551768792282
aF-0.03922863692929392
aF0.003455307728587631
aF-0.031878840765021885
aF-0.027769512888174384
aF-0.03494613380929571
aF-0.02324714478089628
aF-0.031354494354775164
aF-0.04163793812689583
aF-0.011408061146535869
aF-0.008079814786405353
aF0.0014286369985295143
aF0.00688977249029722
aF-0.022140312316107663
aF-0.013925438646347125
aF-0.025535637731558366
aF-0.023217316253735982
aF-0.01003029317641081
aF-0.02848996547724181
aF-0.010872102996886047
aF-0.035501308366098536
aF0.003920766971142512
aF-0.009364646332558076
aF0.004335940756575393
aF-0.008845685951183534
aF-0.0324762895950835
aF-0.020204967817781562
aF-0.0193605600382651
aF-0.024752848007346905
aF-0.0036286589852450825
aF-0.007610689438984898
aF0.011763729082209903
aF0.003565113730758479
aF-0.000437660082580491
aF-0.023930495454611126
aF-0.021104018858896883
aF-0.04423259231726238
aF-0.005792011760900875
aF-0.030911527236439425
aF-0.04677253218660695
aF-0.015269284942819417
aF-0.020376682477556553
aF0.0005971805904734266
aF-0.02395214432123341
aF-0.0340869551495639
aF-0.014778116905415058
aF-0.015109926919704518
aF0.03644007099143372
aF0.019035404560915927
aF0.0014623887805061736
aF0.0029781621527997753
aF0.002582383086160401
aF-0.005009387709761984
aF0.0209080461374733
aF0.02942991290784706
aF0.010163402099012687
aF0.02188042121142957
aF0.018291460064291876
aF0.003920183623684172
aF-0.0038570450936045255
aF0.036962802152779556
aF0.03309317072656903
aF0.033704932964901395
aF0.02627935793065805
aF0.02138653892642012
aF0.016406572114208907
aF0.004556230816374715
aF0.03754909138638434
aF0.0228887923904641
aF0.03426081740010476
aF0.05396670412771018
aF0.04827559232491626
aF0.04827328453834579
aF0.02370359041547572
aF0.02363636337395788
aF0.013299386481376445
aF0.043245745552576466
aF0.03505216462995983
aF0.06923471758422457
aF0.0751559789660501
aF0.04722139101957803
aF0.08746311055108716
aF0.059709515216430115
aF0.01770366956815401
aF0.05034132725283793
aF0.036687728898463744
aF0.0559243944858518
aF0.03941754254618997
aF0.047907578610615266
aF0.03983298860970528
aF0.03037200833870696
aF0.04121046536940951
aF0.022784876329877586
aF0.01798210099230594
aF0.018995618458135795
aF-0.00636659035635095
aF0.001855733885346057
aF0.0176871293683802
aF-0.022375034511821823
aF-0.011292349707661471
aF-0.035407813702200926
aF-0.026845235033651074
aF0.0015256730952162172
aF-0.042521409911572966
aF-0.005919743697174562
aF-0.011066342763384616
aF0.036635550882740786
aF-0.028580905543771167
aF0.03035916032657214
aF0.007414804679910233
aF0.0045403390476196695
aF0.0004616322464366118
aF0.012279179686539346
aF0.0029948299839718177
aF0.011516306322740765
aF0.013438002814542145
aF0.009298381708073372
aF-0.004355217248797026
aF-0.009552438620575499
aF-0.002764208018832391
aF-0.016959128081196928
aF-0.005797010582121131
aF-0.0003974073394820329
aF-0.03449323692558651
aF-0.006944761937580044
aa(lp20
F-0.0014566562167987204
aF-0.000979401578508404
aF-0.0018179628458493851
aF-0.001098956476144413
aF-0.001308186917593222
aF-0.0012003808551892378
aF-0.0019512282040257281
aF-0.001549354004407694
aF-0.0011509021008984652
aF-0.00206052426964405
aF-0.0017181665483555688
aF-0.000987366166271463
aF-0.0006971978637747508
aF-0.00046332228484894506
aF-7.983362517923667e-05
aF-0.0017608778678773907
aF-0.0014096074082514997
aF-0.0024075138033111316
aF-0.0015365674695950271
aF-0.0009812143168643553
aF0.00030862225979407854
aF0.0009615430873767429
aF-0.00029292718843110314
aF-0.002782483092735488
aF-0.0029695574120240965
aF-0.0028120122702543307
aF-0.002143294175982627
aF-0.0023738804697571994
aF-0.0026479527575819016
aF-0.0033273823095657713
aF-0.0023108479984033942
aF-0.0002792853673916002
aF-0.002372780686256857
aF-0.003871608458189863
aF-0.00533746785866569
aF-0.005859897939900763
aF-0.0032100482783197384
aF-0.0028868586911751618
aF-0.0035014631807286783
aF-0.007049957031345926
aF-0.00481359101433492
aF-0.006393375586561222
aF-0.0009528033239432754
aF-0.0030345550406995036
aF-0.004033328951333878
aF-0.006462686254529046
aF-0.004923156958953005
aF-0.0012671936859377565
aF-0.000638131750595588
aF-0.00040446330406732734
aF-0.0034879359844137104
aF-0.002247613434279881
aF-0.00027671079180528974
aF-0.0005775621167025121
aF-0.0013049604744643827
aF-0.0015985080684668362
aF-0.0020759574813014057
aF-0.0005235461288299811
aF0.0002681219620058323
aF-0.00017418477217433047
aF-0.0002118021507691848
aF0.001903362443012366
aF0.00037365339844825475
aF0.00043238386865934036
aF-0.002915564674502273
aF-0.0028779581533723846
aF-0.0011270213747099655
aF-0.000558257735065548
aF-0.0013401040895520513
aF-0.0009265017221073321
aF-0.002955289853984982
aF-0.0017908150000540452
aF-0.0028185547594868315
aF-0.0009694625845534446
aF-0.001940725256802307
aF-0.0030979745005237586
aF-0.0031561503826549532
aF-0.0020654487648689283
aF-0.0014767790994259344
aF-0.0004566246498922133
aF-0.002369137433217388
aF-0.004159324786843399
aF-0.002219158383384108
aF-0.003390699907462522
aF-0.0012071352408085279
aF-0.0020031092216868667
aF-0.0006781437649330658
aF-0.0024866532459354687
aF-0.0034606430344301968
aF-0.00039279522317592493
aF-0.002369048482155684
aF-0.002214163921513391
aF-0.003196633706162943
aF-0.002636812699645401
aF-0.0026812098133756805
aF-0.002226466580014208
aF-0.002445499234746062
aF-0.0018212063627570173
aF-0.00346848841891978
aF-0.00036277157956872267
aF-0.0026465563259628873
aF-0.004418766606251299
aF-0.006377318692711945
aF-0.0023969884821657844
aF-0.0002177365322649092
aF-0.00209860150764342
aF-0.0027616464135858305
aF-0.0032785599351852915
aF-0.002426543449246076
aF-0.005391742481744557
aF-0.004250147189982094
aF-0.011672677876969104
aF-0.0105786404098409
aF-0.0014000505923428082
aF0.008506350438740115
aF-0.0015243388804375329
aF0.0038347203006801832
aF0.02060682976171994
aF-0.006713777396178137
aF0.006639120336987774
aF0.016851531914804572
aF0.015935839945782255
aF0.02093770487612494
aF0.01828813223739359
aF-0.0024339809121453225
aF-0.0016371277124250809
aF-0.007982020064069279
aF-0.004759313163299412
aF-0.01570857706083331
aF-0.01863914979431666
aF-0.03497011900848278
aF-0.0342026844777951
aF-0.012630873060604755
aF-0.03110638472385856
aF-0.022741300873223062
aF-0.0649386536817597
aF-0.04436064920963141
aF-0.07262715623864771
aF-0.05008353858109447
aF-0.03359850746217745
aF-0.009482838718828181
aF-0.03162891392102102
aF-0.03764833671646588
aF-0.01681554617472336
aF-0.011629841893732909
aF6.122543093915687e-05
aF-0.0029413276377158355
aF-0.004633619665994858
aF-0.0067373357387780185
aF0.00431162592101658
aF0.01624192550231509
aF0.00048468049615440665
aF0.0032639653121405415
aF0.008449054623604955
aF-0.0005452650994591148
aF0.006024622859490431
aF0.007033779459652601
aF0.012077800187177582
aF0.010800552883518846
aF0.014996296854816337
aF0.027516243630447065
aF0.007667208806754659
aF0.03671611298904974
aF0.031572380637901326
aF0.02705921212325945
aF0.024585592797313906
aF0.03818842142042004
aF0.018057759842691864
aF0.024424253204543226
aF0.01938650222949198
aF0.02495642579452314
aF0.003588134836169544
aF0.0075521325428310315
aF-0.0018342778837030448
aF-0.007396448673716597
aF-0.008006648997888579
aF-0.006568940145699763
aF0.0038210042220823987
aF-0.001907438688127619
aF-0.005990306124085879
aF-0.012160323284944189
aF-0.007623568869059391
aF-0.004996126771548053
aF-0.011190482816286223
aF-0.011848665883797085
aF-0.01189027535905791
aF-0.012140418547652186
aF-0.010914008059667569
aF-0.005029976244452607
aF-0.016465716242790054
aF-0.0176433289172389
aF-0.013028535038723466
aF-0.00621346677180367
aF-0.005591390642415945
aF-0.0019565907702895455
aF0.004408910493539656
aF-0.005788280843361502
aF-0.004704313116999656
aF-0.005173612798599196
aF-0.004253949515515271
aF-0.0016919388393075586
aF0.0011017522544364755
aF-0.0043488896157301005
aF0.0028885673817017478
aF0.002481186473754468
aF-0.00031410935192042317
aF-0.006124916935705224
aF-0.0019709428925491408
aF-0.005839115928713441
aF-0.01107836749640143
aF-0.007597489158158725
aF-0.016131990099953666
aF-0.0032894281999521205
aF-0.006168233642625287
aF0.0016033253772481713
aF-0.008969368663097152
aF-0.004543795304559901
aF-0.011675439702537939
aF-0.004184211856308079
aF-0.003862490812847413
aF-0.0007188733967421033
aF-0.0008533571013003436
aF-0.006854530108166502
aF-0.008392572750919964
aF-0.010785138990777971
aF-0.001629977302018448
aF-0.009336876744392328
aF0.007757038123519066
aF0.004818065090337295
aF0.02715756794513116
aF0.021105175247374326
aF0.06411621137387483
aF0.0504232436326457
aF0.01762309224428879
aF0.024885065841055487
aF0.04423418640586803
aF0.039278348147580036
aF0.017926367978278384
aF0.018619846296627524
aF0.03459539337286339
aF0.02144519024368981
aF0.021849958332644286
aF0.025506985990054
aF0.019979683651469893
aF0.015564730757071087
aF0.01235459093228062
aF0.013864316818583132
aF0.0201627603012771
aF0.020379616984350406
aF0.027181859857531965
aF0.020215432746357214
aF0.016828207570564344
aF0.008747736209969584
aF0.012827045775298165
aF-0.002062602109832186
aF0.021816759744187314
aF0.006084824687954323
aF0.007373131953941272
aF-0.0066451411278256
aF-0.018162779175713285
aF0.0045542606363194425
aF-0.01170658073857728
aF0.002201717663602666
aF0.00406115936424338
aF-0.00583901514308381
aF0.026537177275227485
aF-0.002381115039827697
aF0.002110731874663103
aF-0.016011422834755387
aF-0.03529386613606643
aF-0.03543087408694821
aF-0.0464107593781789
aF-0.013527048420216571
aF-0.05114415256203304
aF-0.05850015692924848
aF-0.036201148566940226
aF-0.025056990977200388
aF-0.008113069202840755
aF-0.04054595848004421
aF-0.06075969767864372
aF-0.07839136397957606
aF-0.07628688015657664
aF-0.07038280493175629
aF-0.03964007908411935
aF-0.036183824684626525
aF0.006154303928805635
aF-0.0032521423008401657
aF-0.0069128445048052736
aF-0.02798904141900103
aF0.011980848846888294
aF0.021994460755686417
aF-0.0066660589168897715
aF0.006543578147341581
aF0.012472597635058853
aF-0.0005168927014598874
aF0.018015288232185463
aF0.0372133957049585
aF0.029321811247375283
aF0.040913588839459836
aF0.03176039958774383
aF0.029795316960326557
aF0.02691088942350667
aF0.06219073052805661
aF0.04939976176243855
aF0.029706920138227257
aF0.013932865305104361
aF0.008671119887861576
aF0.031795046386117354
aF0.018615039368325318
aF0.03985523943195989
aF0.035331849455686896
aF0.020094606457491396
aF0.04836469449519453
aF0.021397627922804013
aF0.0306011884931949
aF0.05554983161080741
aF0.039579363429445
aF0.05066973969306252
aF0.05939108064585487
aF0.013355590395556637
aF0.04895907915480922
aF0.03650826388528757
aF0.040686280746755225
aF0.03342501050262541
aF0.04742266826353724
aF0.04516394154651445
aF0.020954420220440827
aF0.050391641445741764
aF0.023637893554922036
aF0.05682359202119633
aF0.033865457676172876
aF0.058188264683278444
aF0.03949855067375151
aF0.06292388011310324
aF0.057788386211792754
aF0.072652877566134
aF0.04374639559169217
aF0.08078804033047726
aF0.058342365976766244
aF0.04282135735648124
aF0.03949527303124867
aF0.02360552048738755
aF0.025179545505976543
aF0.032366028583598154
aF0.02335087366085466
aF0.01504548017857978
aF0.03423106132159712
aF0.044742318095378875
aF0.000752573916301484
aF0.033443038550226734
aF0.02651069163149315
aF0.050743007945458364
aF0.03126177636865749
aF0.010369154620863415
aF0.03563485874577767
aF0.04045006517065611
aF0.04000527925139517
aF0.005955425148679638
aF0.035284656133426025
aF0.03236465495565039
aF0.018175091884668104
aF0.011168355157303347
aF0.031944995746030366
aF0.03401747241477722
aF0.03256614003309179
aF0.011685877944206738
aF0.016885945370967444
aF0.011005058480334328
aF-0.004612252146398026
aF-0.007993637371594161
aF0.01824499254682765
aF0.0009731854042911696
aF0.004809368864615372
aF0.013957682016054367
aF-0.013252634041979431
aF0.019477395677775445
aF0.005085679718748342
aF0.0013249131798961317
aF-0.005563044146918474
aF-0.006692557481371061
aF-0.01671050828319642
aF-0.027879899504562076
aF0.006124466036243292
aF-0.0322072308063445
aF-0.004876180451112773
aF-0.01799181192711175
aF-0.014592950394113331
aF-0.012140732049185438
aF-0.04833873710238518
aF0.004935216850973127
aF-0.036971409829328734
aF-0.033790382137674865
aF-0.042527819804217555
aF-0.024511287080867108
aF-0.03719159319190111
aF-0.048017121668184976
aF-0.012507391368392459
aF-0.001850505802721124
aF0.012079931168781529
aF0.011656049675934583
aF-0.02113485300117295
aF-0.015703388655707962
aF-0.03271175433167486
aF-0.028570073992943645
aF-0.0063829490611374655
aF-0.0351988559348282
aF-0.012052655094418762
aF-0.042265043605565794
aF0.011453065172101061
aF-0.00979558858538569
aF0.005977303006958718
aF-0.009004729629437385
aF-0.04177955044410735
aF-0.0258270750683284
aF-0.024507504591172243
aF-0.032670404773684956
aF-0.003204263379234018
aF-0.007640116364120856
aF0.014791652046374781
aF0.0008855490906578081
aF0.001094033396987394
aF-0.029573700574079022
aF-0.02466399540963343
aF-0.059278803082510045
aF-0.004760591247715005
aF-0.041280960170368385
aF-0.05922194303709595
aF-0.025316877744952688
aF-0.024379732412650002
aF-0.0016253267904529584
aF-0.036314757665133694
aF-0.05122061855814701
aF-0.02597889041884309
aF-0.022562857684059533
aF0.054891468771372944
aF0.030638446204157465
aF0.0023775191094636628
aF0.002146708051156744
aF-0.0006874746706456514
aF-0.009719651936424847
aF0.028623552408432344
aF0.04323450395490414
aF0.015100128850549604
aF0.03684677071798994
aF0.021038668644620652
aF0.0007560378262736979
aF-0.010779775209541624
aF0.048187657606335955
aF0.04323934102743578
aF0.04566673758863872
aF0.03835792621490932
aF0.03181620601013671
aF0.022625928296592157
aF0.001423929869753387
aF0.050548678406424075
aF0.024457934704787604
aF0.03823134131942686
aF0.06797829414053444
aF0.06213848780101175
aF0.0665462074550845
aF0.035718265280342984
aF0.036176500678974585
aF0.0193759561259818
aF0.06348486526532719
aF0.04501900755232266
aF0.09798546181074992
aF0.10821137265549108
aF0.06153686058189231
aF0.12088426226734564
aF0.08301691566944683
aF0.01654915615853602
aF0.06723230045954179
aF0.047034608611625575
aF0.07019038896211081
aF0.05580401018538714
aF0.07210565704172148
aF0.055984023217666344
aF0.04194783191987182
aF0.05551780181458036
aF0.032222761888723805
aF0.025056306662992738
aF0.031084746862311375
aF-0.004559088316738867
aF0.008280666618012567
aF0.028047040646983896
aF-0.023046037579475376
aF-0.01508610005467964
aF-0.041884184946147145
aF-0.029555918488710236
aF0.00822340994340192
aF-0.04893189752159403
aF-0.002716079290769935
aF-0.00821275111683287
aF0.04770429991185165
aF-0.0314179316102255
aF0.0398134172236818
aF0.018093746916379442
aF0.00568258738697667
aF0.006219636408996625
aF0.013834436575515014
aF0.013168091673265013
aF0.017721640863160484
aF0.024357853705026748
aF0.013796856627944531
aF-0.0033955039531834825
aF-0.008165788073563057
aF0.0030417607898683757
aF-0.017364825923666522
aF-0.0027642034637864773
aF0.0007827189016092235
aF-0.03976255315063276
aF-0.008051641347644982
aa(lp21
F-0.0005221136576274215
aF-0.00032726151858042125
aF-0.0002737149278491432
aF-0.00024213536876209978
aF-0.00030609934670896975
aF-0.00022180909812738795
aF-0.0003143203159142845
aF-0.0004176013661385567
aF-0.0005230972535123701
aF-0.0005126666152469604
aF-0.00047851069266133527
aF-0.0005941023183777682
aF-0.0001962808327336061
aF-0.000437314772751036
aF-0.0005629797168033237
aF-0.0006417565366272259
aF-0.0007271741161561919
aF-0.0005935983520563267
aF-0.0004089810040940466
aF-0.0004212267562021164
aF-0.0006738413702565504
aF-0.0009319967973894989
aF-0.0008612015049422464
aF-0.0007202204197363677
aF-0.0006437072259842123
aF-0.0006810014507408562
aF-0.000439428542498564
aF-0.0005068512037476165
aF-0.0005999162547605556
aF-0.0006484321527105182
aF-0.000694056251171615
aF-0.0008805490819430302
aF-0.0005925071924593221
aF-0.0006722140130199305
aF-0.0005047663652869438
aF-0.0005781146475345657
aF-0.0004984373491152032
aF-0.0007764997729194068
aF-0.0007856291525061103
aF-0.0008714279299461458
aF-0.0008700559977364985
aF-0.0006528595727328343
aF-0.0007165101591885462
aF-0.0005091844515280223
aF-0.0008482427660995346
aF-0.0006600041559852955
aF-0.0005844636498103096
aF-0.0007767241565987615
aF-0.00044902953699672507
aF-0.0008566562421907422
aF-0.000502850014150554
aF-0.0006326714267794536
aF-0.0006759310278243404
aF-0.00031499853219868154
aF-0.0003337758843911769
aF-0.0005465055282171548
aF-0.0005630702015852836
aF-0.0006557223973357152
aF-0.0007436189491343906
aF-0.0005413601198689458
aF-0.0006544820595643383
aF-0.0008359369561897491
aF-0.0005654601067171069
aF-0.001027295225207455
aF-0.0007633779250674494
aF-0.0005743912083144108
aF-0.000772425868455134
aF-0.0005483032849453247
aF-0.000806014811380428
aF-0.0008707518763438854
aF-0.0008839676914955152
aF-0.0008525345339152008
aF-0.0004692078588100915
aF-0.0008442402690909251
aF-0.0006016169650856143
aF-0.0006816463479474887
aF-0.0006304179853257283
aF-0.0009751890029022256
aF-0.0003909389320374819
aF-0.0008731389219112726
aF-0.00045558176599464265
aF-0.0008503474239866558
aF-0.0006840916271358694
aF-0.0008323179343070467
aF-0.00034888391934485586
aF-0.0007318756031592165
aF-0.0007328173823096061
aF-0.0009327890348953701
aF-0.0006598037334652864
aF-0.0013263322394554582
aF-0.0006349531963778061
aF-0.0009062749614911226
aF-0.0009528106843682817
aF-0.0009027505946328948
aF-0.0007159698600501805
aF-0.0009469017894295109
aF-0.0011416094714546937
aF-0.0012085152501473697
aF-0.0008506585162288664
aF-0.0009521648320480072
aF-0.000716783214950439
aF-0.001046302501942657
aF-0.0010411674772139632
aF-0.0008890206756376372
aF-0.0008709902661926436
aF-0.0005058685267250398
aF-0.0008671291701702735
aF-0.0008835809050518279
aF-0.0008432894602188115
aF-0.0010666232524449847
aF-0.0013421250159077463
aF-0.0014229011308299706
aF-0.001961789708771981
aF-0.004359947900457662
aF-0.00579589604802585
aF-0.004331379844655696
aF-0.008669949862582748
aF-0.010337179873142225
aF-0.004916648194423335
aF-0.005888700263566991
aF-0.010085812966520015
aF-0.006595517893663338
aF-0.008035337901446357
aF-0.008878321251560232
aF-0.005790426046945922
aF-0.00902146181354203
aF-0.009942168415217875
aF-0.0069147439400302135
aF-0.011771374486979048
aF-0.01050083201787502
aF-0.008002406143266501
aF-0.01267906763832684
aF-0.010307276779852591
aF-0.013426294152845408
aF-0.00881201722853162
aF-0.016398380131645286
aF-0.012781509401648098
aF-0.01694630921472928
aF-0.009041859921510567
aF-0.007675883894589157
aF-0.009532405816725055
aF-0.010099913115513013
aF-0.008810701917416236
aF-0.009632167537591623
aF-0.006859041677449489
aF-0.006571288242472067
aF-0.006349318119214101
aF-0.007071187867928964
aF-0.003913887590520684
aF-0.005669587515761443
aF-0.007147487443797075
aF-0.00366165244388487
aF-0.0048515917478213835
aF-0.005746559056383376
aF-0.003550235767516277
aF-0.0057516028386224724
aF-0.004061026122377173
aF-0.006145382980611753
aF-0.005035811158599753
aF-0.005174149761819698
aF-0.009685889699275687
aF-0.004818222422070551
aF-0.011476249283889822
aF-0.010524039960105692
aF-0.0102309817332818
aF-0.00832506396659779
aF-0.011645203716670244
aF-0.0065974734126555004
aF-0.008032977858350268
aF-0.0058578160680698545
aF-0.00847955861078618
aF-0.004547105683901894
aF-0.005690986311071238
aF-0.004891220057733059
aF-0.0038220950592884866
aF-0.0035353607409114576
aF-0.0032884174678878297
aF-0.0033846126956755583
aF-0.002536029635948243
aF-0.002804747728477943
aF-0.003170767202144748
aF-0.003420197128161386
aF-0.0025096220217042664
aF-0.0028466490766386092
aF-0.002451209004991043
aF-0.0021713490651829818
aF-0.0024051873723703885
aF-0.0023227154300727174
aF-0.002353567257892266
aF-0.001694182614159627
aF-0.002658137409311584
aF-0.0017897344644704457
aF-0.0028637578872096263
aF-0.001828889883185519
aF-0.001929386887530376
aF-0.002780977346185562
aF-0.0027498165127687922
aF-0.0028767935269238547
aF-0.0017498767911983593
aF-0.0036245608995620748
aF-0.0024905943589755464
aF-0.003102362519909857
aF-0.0018725750794023092
aF-0.0024378020655138606
aF-0.0025434344763242715
aF-0.0020311842445013533
aF-0.0018025754811028772
aF-0.0020791452973798904
aF-0.0021257191662916617
aF-0.0022206527011490525
aF-0.002782855262139785
aF-0.0026756760006724305
aF-0.0030358150582294637
aF-0.003157099548409241
aF-0.0016185648058575776
aF-0.0020494318453003232
aF-0.002479476748929424
aF-0.0027843080208993683
aF-0.00260667610556511
aF-0.0033611496175510952
aF-0.002935952082041199
aF-0.0021838723374984358
aF-0.003210736931513963
aF-0.0015983131641834783
aF-0.003483509409029791
aF-0.0021353907186049815
aF-0.0025003302776407735
aF-0.003836243422948207
aF-0.004742721711695421
aF-0.008421559497036192
aF-0.008640698657859339
aF-0.016537496465934526
aF-0.01452969176077702
aF-0.00807924251079107
aF-0.010220112155467177
aF-0.015305608255330535
aF-0.012205287820578656
aF-0.006479402359737407
aF-0.008258401515478351
aF-0.01042727682018927
aF-0.009709527109173858
aF-0.008133162872253722
aF-0.011383068201869006
aF-0.006726919124014629
aF-0.007335470961406859
aF-0.006499799205689964
aF-0.0062747252067305685
aF-0.006729808693480469
aF-0.007942765757027277
aF-0.008916341984571452
aF-0.007058344850661152
aF-0.007309789188077124
aF-0.005802390742770137
aF-0.008243951816468939
aF-0.0071718492235169065
aF-0.00930057721392752
aF-0.009274972782602309
aF-0.00786719201825462
aF-0.005157517348611357
aF-0.006904342247617121
aF-0.010099329579228225
aF-0.011065932489871744
aF-0.007370878053663937
aF-0.010328706294106095
aF-0.008716470541789438
aF-0.011800153178409056
aF-0.01185024502576662
aF-0.010505035635729045
aF-0.012986574041791245
aF-0.011676396370571083
aF-0.010183943384756691
aF-0.011488359693212699
aF-0.01204383689797074
aF-0.013250429925213268
aF-0.009441286927628374
aF-0.012741820361852424
aF-0.013311715523583408
aF-0.01227509285883567
aF-0.007662448388286409
aF-0.012213429086907614
aF-0.015172883407239289
aF-0.017427118014414194
aF-0.01611079975320516
aF-0.014960704557175684
aF-0.01074899730887143
aF-0.010846267732874237
aF-0.014135108130190456
aF-0.015936243160214945
aF-0.008331916393766476
aF-0.013984653539311047
aF-0.015151207483633753
aF-0.01159394778114347
aF-0.012951733152964462
aF-0.011043713759866134
aF-0.0058106286088206215
aF-0.008836488987058848
aF-0.015298978025461008
aF-0.010811867897315062
aF-0.01534782117792243
aF-0.015595558103816302
aF-0.011540035708526884
aF-0.01261734538092538
aF-0.018744502938122538
aF-0.01540087866637908
aF-0.014037772192974808
aF-0.010162886577871736
aF-0.0058343014122174
aF-0.01470001540040204
aF-0.012732174025649317
aF-0.012719122026349975
aF-0.017378024039586888
aF-0.01196271292639234
aF-0.01639041041091689
aF-0.014785608927154003
aF-0.013978746554865064
aF-0.017943310961414154
aF-0.018240754862776033
aF-0.017132789597270735
aF-0.01983392940413665
aF-0.010566797311872985
aF-0.016772083523466534
aF-0.013502702513092813
aF-0.015592844570369484
aF-0.01204540404917088
aF-0.01394174742747802
aF-0.014687562532336258
aF-0.010150568382857463
aF-0.0150560388295154
aF-0.010120607540332609
aF-0.018755682239314755
aF-0.012390001543352356
aF-0.018970084994769806
aF-0.014238387879473261
aF-0.020613408090876077
aF-0.017887931463726237
aF-0.02182128393418715
aF-0.01401111423627517
aF-0.023559092746003648
aF-0.01710438964117915
aF-0.014744534105774922
aF-0.013223886625110906
aF-0.009100947446153626
aF-0.00991627583208774
aF-0.012274828176923535
aF-0.010673501057832295
aF-0.011793114696755942
aF-0.015069579717956538
aF-0.017912700021991915
aF-0.00639730868592844
aF-0.012735722857639978
aF-0.010608654605284618
aF-0.01391774801635259
aF-0.013417001092496663
aF-0.005826390043569225
aF-0.01179741604915584
aF-0.012193771067449474
aF-0.012542864794880898
aF-0.004793660726528154
aF-0.011199573646173149
aF-0.01182059365633751
aF-0.008184737185595616
aF-0.007075920350531019
aF-0.008780054616807656
aF-0.012914459085186727
aF-0.011265082991717213
aF-0.008880393093047811
aF-0.009597925595480852
aF-0.012596160858163105
aF-0.005481769757524878
aF-0.008068853008807157
aF-0.011396702259394223
aF-0.0058614985394305034
aF-0.008179481911853114
aF-0.007108738255182773
aF-0.003294039926101517
aF-0.008039395932676174
aF-0.0065681461063667994
aF-0.0057344207122881265
aF-0.008277746589862491
aF-0.007081533534260971
aF-0.0063961260262935075
aF-0.006451467881403447
aF-0.0069904968040055285
aF-0.007683087443295238
aF-0.00789533749581581
aF-0.010083538010693055
aF-0.009346058047382168
aF-0.008247754098495281
aF-0.006399695541014082
aF-0.00968034862178397
aF-0.012635647394577605
aF-0.008646111622382624
aF-0.011021436943131416
aF-0.015748974680752953
aF-0.012234283602588655
aF-0.012210107267433608
aF-0.01158867751324436
aF-0.013624851563888091
aF-0.01666561257972906
aF-0.012750137420757248
aF-0.015715298233630208
aF-0.01191647925504269
aF-0.013684001644586658
aF-0.014420280408877738
aF-0.016348708625873173
aF-0.014888655991737726
aF-0.011945692520716304
aF-0.010338276612613844
aF-0.016255529261105073
aF-0.010656973588950073
aF-0.013479376116722981
aF-0.011138243172196489
aF-0.012341005410045437
aF-0.0154125782249951
aF-0.018662696543757754
aF-0.01155918600305558
aF-0.012067610988472418
aF-0.01046750303858468
aF-0.013045994904371886
aF-0.01210331194130106
aF-0.016936687561568256
aF-0.020712627115344877
aF-0.023710912715665437
aF-0.017468922563641475
aF-0.019562990224851376
aF-0.016799664407973966
aF-0.017594981336254933
aF-0.012116963817125357
aF-0.015385377521097152
aF-0.011685834202764735
aF-0.014306069436585652
aF-0.01812648239220444
aF-0.020460707974008976
aF-0.016461806187795944
aF-0.0249321029214915
aF-0.017496198874815166
aF-0.009329003996176265
aF-0.011087693172401152
aF-0.010276894409824554
aF-0.008971746988306046
aF-0.017378182430763087
aF-0.015762911430501573
aF-0.012471894555046518
aF-0.023285631306180804
aF-0.02270775363399209
aF-0.020024857909464316
aF-0.011284534826471813
aF-0.022035522163497006
aF-0.015414212570983632
aF-0.015166841346778506
aF-0.018111934864238097
aF-0.020198707374973025
aF-0.019433902199130094
aF-0.010953146656163674
aF-0.01912704439294125
aF-0.009242962164268545
aF-0.012407115855918605
aF-0.02083570670944904
aF-0.01849271515999955
aF-0.018058590568801137
aF-0.015422598727208959
aF-0.0173417580299681
aF-0.01367329625486287
aF-0.023036351265493322
aF-0.01977657460079126
aF-0.03540970794833817
aF-0.032341482112183566
aF-0.020573037814439275
aF-0.03400345818909648
aF-0.027757841161035565
aF-0.011910157268696094
aF-0.021731117340569546
aF-0.01933355408538204
aF-0.021526774092709814
aF-0.019653595242091638
aF-0.02516882508527107
aF-0.020490181719482022
aF-0.017228489621885352
aF-0.01990954438715937
aF-0.01501203843119062
aF-0.012910829225994673
aF-0.016519581365222927
aF-0.007499930775000077
aF-0.01681964080901122
aF-0.02045815932824077
aF-0.014368648031147298
aF-0.016996155897092934
aF-0.012179124728237907
aF-0.014781779053062051
aF-0.019306306250145382
aF-0.013255470914087866
aF-0.011782866584382715
aF-0.015065745995784016
aF-0.016790203068872946
aF-0.00834645632965878
aF-0.018208282217407702
aF-0.020014499751353217
aF-0.009530566394594481
aF-0.013351038341810952
aF-0.012466552536017505
aF-0.015926033397459797
aF-0.013238726649173464
aF-0.01961763023058575
aF-0.010947949813833895
aF-0.008556543225454434
aF-0.013151287716266119
aF-0.014252276758528935
aF-0.015336464773784673
aF-0.017951123486991714
aF-0.011566880509371357
aF-0.012461969852825192
aF-0.008172228481843812
aa(lp22
F0.0040671995089638325
aF0.002615022463684933
aF0.004933813928779976
aF0.002894158424422419
aF0.003668616841769051
aF0.0033399631966618878
aF0.0052447819152318205
aF0.004245400921728625
aF0.0033681483215273786
aF0.005265648303449462
aF0.004360106485112226
aF0.003060209580721947
aF0.001819797587977127
aF0.0017950444943625721
aF0.0005549515644765587
aF0.004684037774594664
aF0.0030978592860495605
aF0.005907728148171701
aF0.003298149968290713
aF0.0025033186714997916
aF-0.00032889131876618716
aF-0.0012335515252323462
aF0.000959482354591212
aF0.0072435838462075
aF0.006885138140949502
aF0.00697385858370966
aF0.004977301440515781
aF0.006191774079222625
aF0.006608059864546021
aF0.008411859836738358
aF0.005915714399588964
aF0.0014948963404474414
aF0.006106778066229996
aF0.009667937896034973
aF0.013075414310938307
aF0.014637312194387426
aF0.007989897416910403
aF0.007784555742772402
aF0.008266359718076838
aF0.017551274666640353
aF0.011461541407058818
aF0.01611636737888836
aF0.002442112731315928
aF0.008025451026686468
aF0.009863654579184722
aF0.015866325287926728
aF0.012142608204054347
aF0.0036167438814603916
aF0.0022894439151489804
aF0.001846841589481709
aF0.008844176254322525
aF0.0060164989419249516
aF0.0012609205717260467
aF0.001754500730715975
aF0.003287069980726975
aF0.004178561180199896
aF0.005038259333415398
aF0.0016219676838463276
aF-0.000157237935261524
aF0.0006429134082823061
aF0.0013506151428542173
aF-0.004074190129376876
aF3.987046672540109e-05
aF-0.000465229559503178
aF0.0074590285034447645
aF0.007129773531442973
aF0.003123410987628196
aF0.0018366243269839987
aF0.00433684072193585
aF0.003078575706488542
aF0.008247813775557842
aF0.00484722695160474
aF0.00727344450509584
aF0.0029296817375788382
aF0.005153013360055166
aF0.008034180396024175
aF0.008092289794546403
aF0.006244666422944563
aF0.004085568561696525
aF0.0024778300152705204
aF0.006213445747955999
aF0.011435859723888341
aF0.005881899552505545
aF0.009822819311498981
aF0.0033202350290395797
aF0.006585334633664107
aF0.0027368156841576737
aF0.00758356355460373
aF0.009684049105566656
aF0.0032121934863045664
aF0.007067945826671402
aF0.0067242103749587745
aF0.009083915088837784
aF0.007766192757936988
aF0.00742691583837262
aF0.006987397892019126
aF0.007366933735741409
aF0.0050538770611375655
aF0.009046541389461819
aF0.0017337697553867742
aF0.007510229835854017
aF0.011753820355047247
aF0.017111408912600264
aF0.006990730242909426
aF0.00227213824681527
aF0.005433875857119593
aF0.00712053544450431
aF0.009738137980846046
aF0.007207261696166073
aF0.016329587409601058
aF0.013470717163331284
aF0.03246825682282686
aF0.02980266767522323
aF0.011846608990033912
aF-0.007867996327348659
aF0.01276100105903903
aF0.0036358823605291135
aF-0.034433104324364645
aF0.02948148096742128
aF-0.005714253043483902
aF-0.02171691192014845
aF-0.02858138266322462
aF-0.04214994546547743
aF-0.027837525560297057
aF0.013688682770748703
aF0.018781701821098732
aF0.04075280954849893
aF0.020589724281574906
aF0.06370987146315205
aF0.06857037836695332
aF0.11103100691885016
aF0.11328797199143387
aF0.05262703388887303
aF0.11341960590440442
aF0.062971432288713
aF0.18657439569998982
aF0.11479011884385543
aF0.19934513831719536
aF0.12558361640103943
aF0.0974737286235396
aF0.028846716222679918
aF0.0869621308149658
aF0.0901282989025676
aF0.04517400480723261
aF0.03443405292107268
aF0.006371456754102283
aF0.006599480083692228
aF0.018778125058204115
aF0.016636701038690034
aF-0.0024549823486458813
aF-0.032987723601622124
aF0.0028067281876642137
aF-0.0018060282994395512
aF-0.015077122243850756
aF0.005319088195399674
aF-0.006529779613144747
aF-0.012834613440654416
aF-0.01896165362534409
aF-0.0183589438927033
aF-0.02948031176043627
aF-0.05175307237296073
aF-0.011273870828473653
aF-0.07275907902706573
aF-0.06084770970094728
aF-0.050399841706480084
aF-0.04855883419837261
aF-0.07431571704917504
aF-0.03392671009012125
aF-0.04775003312395647
aF-0.03698098960394636
aF-0.048098558442274036
aF-0.004414929319008761
aF-0.012238815764368062
aF0.009001403705182515
aF0.01991911177587126
aF0.021202848118488916
aF0.017805821497591634
aF-0.007492898954196228
aF0.007598019995691412
aF0.015372331269123499
aF0.032061425681226274
aF0.021932799080366164
aF0.013571623654230763
aF0.030061766171497976
aF0.029876990413156362
aF0.029822363027578746
aF0.0315230677208858
aF0.02900551094828396
aF0.01595432650001134
aF0.042545805243475725
aF0.047495710991776116
aF0.03434282771229172
aF0.02071396709635409
aF0.018450185823673818
aF0.009622050752847987
aF-0.00597164593271321
aF0.020326283342168867
aF0.016574786733286027
aF0.014431193740605707
aF0.017545851992514266
aF0.007752658013396551
aF0.0020060238284664647
aF0.01335397425299912
aF-0.0040838175720658895
aF-0.0023689561776558074
aF0.0031907758344182544
aF0.01897649414835216
aF0.008028781010342045
aF0.01863998286325519
aF0.030089172808312803
aF0.020907786389362287
aF0.04273222558847237
aF0.010922884749445987
aF0.01991685826919203
aF-0.0013404079697460854
aF0.027038990751800353
aF0.014034076283256607
aF0.033781781558046314
aF0.014250798561090253
aF0.015775256155262467
aF0.007655521271887606
aF0.006373010910779967
aF0.02380428995809777
aF0.02176648388413351
aF0.0345553451384528
aF0.008449073356342462
aF0.028801753337061465
aF-0.011606559150811897
aF-0.0012494322550946361
aF-0.05597994969679513
aF-0.03890133642255274
aF-0.12595566218935805
aF-0.10281083801971982
aF-0.028878071826001137
aF-0.053837795090939285
aF-0.08157990202924803
aF-0.06981786000330893
aF-0.02996883590561954
aF-0.03228552668922773
aF-0.06143633643405242
aF-0.032843401225095555
aF-0.041254526409077334
aF-0.04280665097630489
aF-0.04276864578204703
aF-0.024248964593867692
aF-0.022117171550559228
aF-0.02471140487403015
aF-0.03772529053487907
aF-0.03560909173073938
aF-0.052196034057423416
aF-0.040450313044218054
aF-0.03034418551648212
aF-0.013939355182480656
aF-0.017933172077791323
aF0.020590023267323898
aF-0.03956533364440749
aF0.010859825738249533
aF-0.0002642891041522769
aF0.027214155111961433
aF0.057606826494653075
aF0.004388769768416564
aF0.05519269950149318
aF0.005501900925895024
aF0.006588845432506722
aF0.03100574851179065
aF-0.04880604634632315
aF0.02544752438119085
aF0.013263789337274623
aF0.0580691480765616
aF0.10840076179517613
aF0.09855608504829926
aF0.12963086825458783
aF0.04016653399251145
aF0.14413776459966268
aF0.1485284818564354
aF0.09982190216442936
aF0.0797472601464771
aF0.03524802538019359
aF0.10522157222287544
aF0.15969687425195705
aF0.1973784450934572
aF0.19262635473727263
aF0.17072621996117163
aF0.09937907976542969
aF0.09224460876214649
aF0.0006351709865368208
aF0.017716847866842696
aF0.03252194554889117
aF0.06348509656782339
aF-0.01353598856360025
aF-0.04040745510517139
aF0.027802380779427583
aF-0.0025863253468214886
aF-0.01693763683853081
aF0.008691277908377783
aF-0.03158050298085124
aF-0.06831591185199488
aF-0.05718207767064897
aF-0.07454005365036132
aF-0.059307258775262925
aF-0.056037626110688334
aF-0.05236999677162587
aF-0.12034278765836423
aF-0.09982789599978618
aF-0.0495481928298379
aF-0.013542854261603036
aF-0.02224928058561562
aF-0.055167839272444986
aF-0.02783022060911799
aF-0.07747847931482962
aF-0.056576950177587855
aF-0.028457937643831248
aF-0.08830020381170336
aF-0.03384132015140958
aF-0.05031027203272837
aF-0.10165499304374673
aF-0.06705671588882536
aF-0.09274604304628734
aF-0.10907864767963306
aF-0.009653133068480585
aF-0.09112283913832406
aF-0.0651463341746268
aF-0.07096286595483116
aF-0.06614563868095415
aF-0.09213372188259851
aF-0.0783722364568059
aF-0.03815125617603773
aF-0.09922428616631297
aF-0.03528590390473343
aF-0.10954432582589138
aF-0.0672786166735274
aF-0.11048000527856289
aF-0.07510600198850649
aF-0.13067648099693654
aF-0.11587121284379844
aF-0.14207775437995337
aF-0.09290033017725606
aF-0.16587994940435694
aF-0.12173207121690052
aF-0.08645432329410441
aF-0.07768973925792537
aF-0.052538912363524704
aF-0.04599485252669543
aF-0.057285242334816924
aF-0.043330692199812774
aF-0.017257758970343404
aF-0.06847540570057761
aF-0.08166406720631872
aF0.005428240864463246
aF-0.07070731563288807
aF-0.047210973152132255
aF-0.09604852726713366
aF-0.05623263409119287
aF-0.016069512406580017
aF-0.06199182142249578
aF-0.08078769259631088
aF-0.07978130742429428
aF-0.004532584493599394
aF-0.06783882768781015
aF-0.06322291234128961
aF-0.030770704759874343
aF-0.015872768736261027
aF-0.06733010714015653
aF-0.057233902957241664
aF-0.06342112481705786
aF-0.009516651062309327
aF-0.02914656051793403
aF-0.003371410327326066
aF0.020909713226862806
aF0.03562130371563457
aF-0.02216890395745689
aF0.011033473306682537
aF0.006280937239992923
aF-0.020914847476234275
aF0.039864577915009275
aF-0.03598886810694776
aF-0.003705378055501794
aF0.00467285907979477
aF0.028041871247597445
aF0.029575881002990387
aF0.058315427357181496
aF0.08612707977134118
aF-0.005794467395366619
aF0.10517421142944536
aF0.02701354466230546
aF0.07476740268983614
aF0.06034881888974832
aF0.0495696055895003
aF0.14453884431289735
aF0.0006041975693971169
aF0.11967485006937857
aF0.09844490784916396
aF0.12597982434303243
aF0.09281813861539995
aF0.1121403221239139
aF0.14744666886927307
aF0.0498487261654531
aF0.03931089433281937
aF0.003526005066744301
aF-0.00720396939858007
aF0.08511971664234641
aF0.05052776254610723
aF0.10042916509271356
aF0.08754263172486516
aF0.04054605099005476
aF0.10373284826262259
aF0.044151727331553516
aF0.12096939838950531
aF-0.0009092004854734042
aF0.04112129035434314
aF0.0036800641902927328
aF0.036089474316929764
aF0.11779209815969716
aF0.0755655399893486
aF0.07398804392899717
aF0.09202481613752991
aF0.020414237677310286
aF0.03309237391899286
aF-0.01814240475288995
aF0.004065897257496568
aF0.015929760792634286
aF0.08872748369599552
aF0.07774889762798648
aF0.1514792921995807
aF0.031333437248723034
aF0.11074473100318935
aF0.16271837349550852
aF0.06530349961385154
aF0.07785759916073262
aF0.0070548383687636254
aF0.09084527900087307
aF0.12907521734831726
aF0.07089329341716238
aF0.064597638501555
aF-0.09931863315948446
aF-0.04915886681404126
aF0.006309702167226091
aF0.006458052989071542
aF0.008847432334084023
aF0.02617811969234555
aF-0.04933831120997919
aF-0.07543398299128147
aF-0.02331573753742998
aF-0.04962850074094876
aF-0.04260615706548883
aF0.006890456114638668
aF0.031738192230232096
aF-0.08999623676690183
aF-0.08138096225689598
aF-0.08357085467776938
aF-0.06445990996509465
aF-0.056052066494963755
aF-0.03462345300490364
aF0.000560800996336105
aF-0.09105220349272358
aF-0.05365400235123619
aF-0.08072094784556798
aF-0.14221532460135405
aF-0.12768329856450236
aF-0.13232065219510789
aF-0.06751801681001283
aF-0.05756907205347627
aF-0.031332145585833936
aF-0.11639317474299901
aF-0.09283668881366171
aF-0.19822647501440607
aF-0.20886646777560544
aF-0.12756234389830534
aF-0.25109814548803405
aF-0.17046138835771366
aF-0.03331694437961258
aF-0.13575974912435324
aF-0.09344571220979919
aF-0.1464962912401963
aF-0.1101403900548629
aF-0.13447614354813628
aF-0.10669001302460719
aF-0.07504307227199788
aF-0.1121338762044711
aF-0.06285492001682302
aF-0.046938384378434894
aF-0.04727117876095591
aF0.021554472604366305
aF0.004319731422712431
aF-0.03854963161367342
aF0.08443733159743015
aF0.05958054760145041
aF0.1251085288633163
aF0.09442449162073127
aF0.013288634202032724
aF0.14203751647145121
aF0.028962402522172446
aF0.04988770214971441
aF-0.09806284264315361
aF0.09831160814335914
aF-0.07857327628417798
aF-0.006764613455603537
aF-0.0044902184109874505
aF0.013142268533051612
aF-0.02692360420529608
aF0.002887047735807339
aF-0.026824916832945987
aF-0.023892151735814254
aF-0.014014008722956028
aF0.024117531231022185
aF0.04880213147572593
aF0.01785825056882175
aF0.07620911088817506
aF0.04369843353170998
aF0.028458687496915568
aF0.1389545851829267
aF0.03167171579341268
aa(lp23
F0.0014808070772176513
aF0.001082694789965347
aF0.001996421624846518
aF0.0011657499208676838
aF0.0013435300849142847
aF0.001217083205245229
aF0.0020844598609558534
aF0.0016359337752760797
aF0.0013171764686713057
aF0.0020984364631856907
aF0.001840186205917156
aF0.001056516332513098
aF0.0007502404449383793
aF0.00043924300953939816
aF0.00014648602249086543
aF0.00180142223948086
aF0.0011804262026518097
aF0.00241275524284921
aF0.0014245704105037612
aF0.0009735364757017778
aF-0.00032607922046858437
aF-0.0008399066766542167
aF0.00013712337612719906
aF0.0030027215710620686
aF0.0028743773858043316
aF0.0028576916535747532
aF0.002064036595713677
aF0.0023955094452874225
aF0.002622912394444584
aF0.0033267661605019833
aF0.0023242614506071447
aF0.00028907024772516476
aF0.0024235889893838764
aF0.0037472010697572056
aF0.00541627417989928
aF0.005975351360198508
aF0.003246106932153245
aF0.0030053501975477142
aF0.0032248758214521614
aF0.007079542231528251
aF0.0044547298432288844
aF0.006560950813027276
aF0.0007156750059991662
aF0.003149142125983732
aF0.003869989289967637
aF0.006467941582946421
aF0.004916489684116374
aF0.0011709008429897363
aF0.0007420183590353377
aF0.00034712375402590797
aF0.003520984339241017
aF0.002250906054379111
aF0.0001555910611700481
aF0.0006054379861718383
aF0.001210614842796031
aF0.0015678373523271985
aF0.0018424699607893888
aF0.0004319786554701918
aF-0.00043055092953504836
aF1.8271981534098707e-05
aF0.0002745760308914878
aF-0.0023168043046700344
aF-0.00013504496931485315
aF-0.000765309598737686
aF0.002949117898030782
aF0.002789465001560763
aF0.0010102269209364778
aF0.0004865568754138556
aF0.0015259212796203021
aF0.0009305619050719821
aF0.0031612244720047008
aF0.0015883904903277785
aF0.002900851350339925
aF0.0007831845324903512
aF0.001880695532137807
aF0.0030972375711947183
aF0.0032998700050172686
aF0.0023498809505166874
aF0.001587237910624079
aF0.0005976660567253285
aF0.002386596984012547
aF0.00457908548223054
aF0.0021405257239100446
aF0.0038596446220021184
aF0.0012377496099582408
aF0.0025350863213411175
aF0.0008965280525760599
aF0.002835240110659807
aF0.0039022511567295276
aF0.0008041236325566045
aF0.0025971800828258214
aF0.0025033961637074076
aF0.0035138715891213194
aF0.0030433368024788718
aF0.002807729201973494
aF0.0026178883255729346
aF0.002821193498547581
aF0.0017488135589705386
aF0.003568003387823146
aF0.0003348530126812319
aF0.0028375066514091858
aF0.004587977572137814
aF0.006836217084966447
aF0.002679967525387768
aF0.0005114620282825413
aF0.0021160476581729565
aF0.002649725007026129
aF0.0037309238611763326
aF0.0024949465592752217
aF0.006232058394707925
aF0.005018909102595004
aF0.012989328538844174
aF0.01165073328345728
aF0.003028700507480218
aF-0.005927100230501933
aF0.003248376360915954
aF-0.0029924070854958538
aF-0.0194940858344857
aF0.010108492543557975
aF-0.005885035687271212
aF-0.0131576949373722
aF-0.01489821029165829
aF-0.022156900335724705
aF-0.016417176263517182
aF0.0018800126352688546
aF0.00371238170232089
aF0.012148898026970936
aF0.006886305627069537
aF0.01882241795536316
aF0.02431720805689197
aF0.04124261293047903
aF0.03902624116884603
aF0.01639289657742789
aF0.04152708716835951
aF0.02374429261641396
aF0.07126618330974673
aF0.04507414749263403
aF0.07901973877194965
aF0.050924121720448176
aF0.0380927442966731
aF0.009007156689667683
aF0.03555880424856877
aF0.036646757164512316
aF0.017539077668631862
aF0.01339086760744964
aF0.0011038810609244768
aF0.0015174263408270717
aF0.006601790132885258
aF0.005700818064650863
aF-0.002861980973484579
aF-0.01663694322525623
aF0.00027622719071126805
aF-0.002294362927054888
aF-0.00812454362943314
aF0.0006981463740789986
aF-0.00444943273989358
aF-0.006600782239870506
aF-0.010250702588648143
aF-0.009711358031204452
aF-0.014702521456099118
aF-0.02525161332992914
aF-0.006697073403898931
aF-0.03486947238807303
aF-0.02987078355322856
aF-0.024834010282680306
aF-0.023956555237366815
aF-0.03580057646257926
aF-0.01727520557950576
aF-0.022885630565899314
aF-0.018053845012032315
aF-0.02340203653312016
aF-0.0036764818503125575
aF-0.006927709009566875
aF0.001856444938004399
aF0.0072004170134965075
aF0.008091862361312391
aF0.006303033408048434
aF-0.004916281358523076
aF0.0016264371652057407
aF0.005449043454787117
aF0.011962534673906922
aF0.007761361792028114
aF0.005174452925374074
aF0.011318159002177823
aF0.011177433255442673
aF0.011275751271758448
aF0.01185572550600384
aF0.010764661678472898
aF0.005716406622531769
aF0.017523550726337576
aF0.01912139323717109
aF0.014039934771468204
aF0.007753460165929138
aF0.006884452634867375
aF0.0032394709283087523
aF-0.003501786759213921
aF0.007513568879728877
aF0.006137796516914122
aF0.005643133726567473
aF0.005962035863397031
aF0.001978677649207472
aF-0.0004541775943344977
aF0.004369590293672697
aF-0.002900212596598406
aF-0.002528798462430051
aF0.00016334172373158972
aF0.007376168407752997
aF0.0027625887579809513
aF0.0071806493481451975
aF0.012063978514493371
aF0.008090637321764493
aF0.017338465507801347
aF0.0038248144663148914
aF0.0071955853071718045
aF-0.0012583856317144578
aF0.010746133401531919
aF0.005139865175492236
aF0.013246404823140712
aF0.005108640091739311
aF0.005093671769232498
aF0.002049671482628478
aF0.001661743255525206
aF0.008678761217718073
aF0.008578935332576995
aF0.013069815599561573
aF0.0026102932950653026
aF0.010719571768484353
aF-0.006465775554880851
aF-0.0024020004826757493
aF-0.02683312212251891
aF-0.019319010523668165
aF-0.059412626527331716
aF-0.04962219499252495
aF-0.016158873857272084
aF-0.027894882930877402
aF-0.04115752747369022
aF-0.03404489929577732
aF-0.015808099473023845
aF-0.017848396174472116
aF-0.030199294267671817
aF-0.01864156923401728
aF-0.02094145524359477
aF-0.024441907816931483
aF-0.02171343325840379
aF-0.015240258894857892
aF-0.012447426008338322
aF-0.014014664916405434
aF-0.018774719550662847
aF-0.017760895386731475
aF-0.025933693332479576
aF-0.020577682022921363
aF-0.01746680431361844
aF-0.009728711384402119
aF-0.011646201850800071
aF0.003977371330145993
aF-0.0214558486840702
aF-0.0007067714414920279
aF-0.0040868167438672
aF0.007005065309696727
aF0.01856597047857932
aF-0.0020820953039326225
aF0.019005843268691952
aF-0.001046626094152753
aF-0.002766788808204586
aF0.009348223405139992
aF-0.025779206679299532
aF0.0044586211022018835
aF0.0017384607644288668
aF0.018217903732749334
aF0.04279761247101391
aF0.03888587619796753
aF0.049883479622499054
aF0.013555993464100875
aF0.05635701098514539
aF0.06043599769066497
aF0.03901408302547439
aF0.028965782778646972
aF0.010392224131354868
aF0.04267918245716763
aF0.06439044093976884
aF0.08044857080134803
aF0.08019332748442014
aF0.07067998023498867
aF0.04111918404431577
aF0.036879224656632556
aF-0.004491984163401955
aF0.005718618113567421
aF0.012788400942489224
aF0.025829199123773634
aF-0.010072881000211378
aF-0.023082992246947643
aF0.008573201473179939
aF-0.0035774184707501066
aF-0.00998590982515796
aF0.0015049311813309053
aF-0.0160004280236701
aF-0.03578128917827214
aF-0.02968884586379904
aF-0.037987638110008166
aF-0.03087011859942451
aF-0.028017674423048314
aF-0.027787169121204398
aF-0.058779092284264874
aF-0.04827901477730139
aF-0.02526089816570351
aF-0.009299577840005334
aF-0.013160808449187326
aF-0.030881195100598217
aF-0.018702270898882618
aF-0.03912178561450911
aF-0.03248267536675381
aF-0.018753467833176055
aF-0.044415406054400704
aF-0.022396040522432582
aF-0.028638967099797016
aF-0.04941467380066016
aF-0.0368893937395639
aF-0.04772560532013134
aF-0.05346367792844881
aF-0.010015659324380179
aF-0.04472667998910535
aF-0.03335795894145109
aF-0.036372453331801426
aF-0.03339104763146104
aF-0.04417347958800013
aF-0.038476162469258675
aF-0.02072025292060547
aF-0.04703862235997533
aF-0.019653590358787415
aF-0.053785850272186374
aF-0.03481401128509252
aF-0.05429554643964841
aF-0.0386686806447004
aF-0.06370959477588355
aF-0.05784445018450642
aF-0.06908439777534045
aF-0.04683654677530483
aF-0.08082248934501306
aF-0.060561633498491155
aF-0.043275259114312216
aF-0.039930731979454764
aF-0.02738017373759435
aF-0.024710100840870348
aF-0.03047208791316336
aF-0.02327578376659025
aF-0.012379143594297676
aF-0.035365019480613616
aF-0.04172314003125468
aF-0.0009606551103010656
aF-0.035695926251623274
aF-0.024581839830935575
aF-0.04587153328355073
aF-0.0290925051327532
aF-0.009077722855769455
aF-0.030895825884108774
aF-0.04092875664894445
aF-0.038524467121607
aF-0.003934432211068657
aF-0.034759885037338636
aF-0.03197845776792004
aF-0.015426406298366786
aF-0.010014703187187803
aF-0.03380362889448882
aF-0.02868566403834177
aF-0.032966488075760705
aF-0.008928929653540878
aF-0.016922383586061348
aF-0.0072962281585509875
aF0.006270337462143737
aF0.00932043478773785
aF-0.015352162029958913
aF0.0002719882421815887
aF-0.0013119336306680897
aF-0.012485751699331504
aF0.014218526616692798
aF-0.018950908348016732
aF-0.0049300635163660985
aF8.987603529855144e-05
aF0.007102730335648531
aF0.008116931493177349
aF0.020757264046237286
aF0.03036009400844064
aF-0.007401438589564057
aF0.0368554549786992
aF0.006571557386654409
aF0.022986060828358232
aF0.016169906611966413
aF0.015264612885121312
aF0.05372470123390527
aF-0.004251490905565586
aF0.04146348448005
aF0.03722581680387441
aF0.0459201249335842
aF0.03091465747465283
aF0.0413378817004058
aF0.05579786665976017
aF0.015135655577952994
aF0.01003756883721831
aF-0.004733431107381472
aF-0.00917619053281806
aF0.029586656881140764
aF0.017512963263899114
aF0.03556082586000474
aF0.031159944800911575
aF0.01290544980952486
aF0.037153123843772215
aF0.015199578482119315
aF0.04809974976915716
aF-0.005577382227964128
aF0.01286805867551698
aF-0.0054229411841878435
aF0.01142428335754534
aF0.04514989524164123
aF0.028176726719152344
aF0.025409388081627182
aF0.03547757122020005
aF0.005217539997796087
aF0.011046756447574158
aF-0.013002069766444616
aF-0.0035392139302356414
aF0.00023529334017499998
aF0.03134715081304933
aF0.028770526901722222
aF0.05963835168454209
aF0.005911101748409604
aF0.04359504872214636
aF0.06831559582341602
aF0.028121189050096303
aF0.030190335815443232
aF-0.0026590584300993404
aF0.036431459517392344
aF0.05304531744911159
aF0.027177855376377996
aF0.02455649962057244
aF-0.05036829751793757
aF-0.024995015121383714
aF0.002320110668420875
aF0.0008784357609578981
aF0.0015536315244898372
aF0.009849753880064474
aF-0.026273950084797704
aF-0.03750153716899725
aF-0.013249041983030535
aF-0.025252979349448253
aF-0.023572927159390564
aF-0.002773810051153144
aF0.010600070747788272
aF-0.04710652619180297
aF-0.042630629826518766
aF-0.042357649109107956
aF-0.03351689409832628
aF-0.03010481272165281
aF-0.021736944728990844
aF-0.004690377221213278
aF-0.047187494298894184
aF-0.02915043907366645
aF-0.0422906540331757
aF-0.07094630117183734
aF-0.06337992639900997
aF-0.06378988666462736
aF-0.03362096589119504
aF-0.029976454298850135
aF-0.01794991024582868
aF-0.05802061780619313
aF-0.04904744096235218
aF-0.09847568923765482
aF-0.10012830059411185
aF-0.06423436937459923
aF-0.12059240021492099
aF-0.08332855712860456
aF-0.0223060038023192
aF-0.06766576729523792
aF-0.04959747008510421
aF-0.07414666241301988
aF-0.05460809709827858
aF-0.06586236641709557
aF-0.0535855788238104
aF-0.03947366395467993
aF-0.05650271312744536
aF-0.03298794151055666
aF-0.025929244411102063
aF-0.026285964396733613
aF0.00694528413810233
aF-0.005041387013963253
aF-0.024308550458326
aF0.03070853739604747
aF0.017456057830837604
aF0.04937743579063327
aF0.03494839885661928
aF-0.001071474999667442
aF0.05594537481266081
aF0.009186527828060419
aF0.014259989575308999
aF-0.04972001897550782
aF0.03801531548030451
aF-0.0420651776658822
aF-0.010969857106184392
aF-0.006540003805337773
aF0.00033893290125087337
aF-0.017841254077206967
aF-0.003987929578148054
aF-0.016085527076171016
aF-0.01841471799392383
aF-0.012061234520601354
aF0.006362581087834753
aF0.012372934468096944
aF0.002277293559610737
aF0.02198783395139161
aF0.007060733039540057
aF0.002095391955808016
aF0.04672743566671423
aF0.008683584984540308
aa(lp24
F0.0013854280042215699
aF0.0010191899618521808
aF0.0019167809860216871
aF0.001116690235671975
aF0.0012763212530657044
aF0.0011532205356192089
aF0.0020015584639842326
aF0.001547742831402533
aF0.001256960813943455
aF0.0019860546208794634
aF0.0017520359158391431
aF0.0009856891728620444
aF0.0007080709021970398
aF0.00041274739494595803
aF0.00015343022512227138
aF0.0017026593424654347
aF0.0010605202261163365
aF0.0022610397799854836
aF0.001316323114237412
aF0.0009041426917230229
aF-0.00034974122734263396
aF-0.0007909961260954521
aF7.90533238882097e-05
aF0.002888266263847588
aF0.0026958672479210845
aF0.002719686471668872
aF0.0019229310519944813
aF0.0022617059345113426
aF0.0024787067474386923
aF0.0031875066357068796
aF0.002221371634464308
aF0.00026128847598763037
aF0.0023273974829256657
aF0.0035304320804299067
aF0.005166771420924727
aF0.005709538831159604
aF0.0030620523183102735
aF0.002872863053455411
aF0.0029850700451330638
aF0.006758023021911503
aF0.004162583085525754
aF0.006279770822847136
aF0.000624269690966885
aF0.002982680021270831
aF0.003632455510018906
aF0.0061367161553782966
aF0.0046564004018423
aF0.0010825983245334098
aF0.0007093674424733915
aF0.00027668310366580175
aF0.003349105886792186
aF0.0021093339288357454
aF7.924049928490946e-05
aF0.0005756986455567048
aF0.0011068232588553155
aF0.0014599248947618293
aF0.00167875514366514
aF0.00035274313957590447
aF-0.0004739894055738682
aF-5.1022379380950985e-05
aF0.00024290460651529242
aF-0.002328440061237693
aF-8.658233428088955e-05
aF-0.0008277628577084815
aF0.002831608242036332
aF0.002616368072322562
aF0.0009351438213656499
aF0.00041259852497447055
aF0.001465918180966586
aF0.0008334339157798243
aF0.003050138139554189
aF0.001438438466992401
aF0.0027930763291655453
aF0.0007153958411016326
aF0.0017516163960513002
aF0.0029457032567472966
aF0.0031784350461138726
aF0.0022913866222486665
aF0.001532408312847997
aF0.0005931885770123474
aF0.0022591734886386527
aF0.004457947906692376
aF0.0020082998286182364
aF0.003756547953772311
aF0.0011649859339436003
aF0.002527930137685825
aF0.0008947573931270306
aF0.0027679289398672667
aF0.0038102996392055605
aF0.0008201527759292427
aF0.00252865448666682
aF0.0024664191115972003
aF0.0034312205914255717
aF0.0029774579718328553
aF0.0026783121178440786
aF0.002541733662813422
aF0.002739600222336363
aF0.0016840784555295558
aF0.003408450792006215
aF0.00030955359266534997
aF0.0027393534793391993
aF0.004379402897129897
aF0.006606369238686648
aF0.002595234285352994
aF0.0005110840883874534
aF0.0019892707063039797
aF0.00248682083566114
aF0.0036164138298579447
aF0.0023932910557416718
aF0.00609048110688973
aF0.004933787404659574
aF0.012653836383049389
aF0.011291635625760734
aF0.0031828489517155127
aF-0.005320828295092482
aF0.003401189689902679
aF-0.002638800122401126
aF-0.01846247641823061
aF0.010279950407927906
aF-0.0057532221226326155
aF-0.012130819258477874
aF-0.014402430687361472
aF-0.021733895361836755
aF-0.015916690777108708
aF0.0011391297601040726
aF0.003724060523674681
aF0.012157601615232437
aF0.0067923953552551895
aF0.0182050499298526
aF0.024068329330545035
aF0.04031787253824222
aF0.037926909988546226
aF0.015950362832865737
aF0.0415134604364158
aF0.022483751370885232
aF0.06889028331035645
aF0.04289835075719209
aF0.0764324810917828
aF0.04857984666490964
aF0.03707433839609455
aF0.008136252856967348
aF0.0340765095901867
aF0.03417283752746701
aF0.016399274395207854
aF0.01300086740631525
aF0.0010033657624498654
aF0.0008518275956921285
aF0.006079474545528992
aF0.004892888089100091
aF-0.0029632584204868787
aF-0.01617636893475288
aF0.00023623161694669075
aF-0.0022093725423190423
aF-0.007747825285634561
aF0.0006241018884836034
aF-0.004083060919975181
aF-0.006430211900525734
aF-0.009646883176791791
aF-0.009221004723859488
aF-0.014040331433672098
aF-0.023754976775282634
aF-0.006458485271564264
aF-0.03321292634487889
aF-0.028533577230610657
aF-0.02364439377139271
aF-0.023120157030798318
aF-0.034065450171619445
aF-0.016705866944388362
aF-0.02182672750388125
aF-0.017267985981318217
aF-0.022266509668258546
aF-0.003665771574853544
aF-0.006653390129283577
aF0.0016875124971618258
aF0.006712771916554958
aF0.007624791627816106
aF0.005837859319581886
aF-0.005119335504664368
aF0.001195501797330455
aF0.004858669682509644
aF0.011202399627802864
aF0.007362063871386246
aF0.0049526614140325475
aF0.01073685230791892
aF0.01038799825344317
aF0.010405170792464663
aF0.011058014033271437
aF0.010104416526815502
aF0.005438700401555328
aF0.016858900145760268
aF0.018497808326921727
aF0.013540631720063059
aF0.0076425706425702995
aF0.006776569179147934
aF0.003299693794149194
aF-0.0032358288951523885
aF0.007484221666623687
aF0.006115605733953718
aF0.005446228058888116
aF0.0060110390455665645
aF0.0018628220450485457
aF-0.00040969850470691906
aF0.004085550227884116
aF-0.0029108421736346144
aF-0.002567031727574619
aF3.18417812323656e-05
aF0.0072472431234380805
aF0.00272639151941333
aF0.007085272233201561
aF0.011718783993098452
aF0.007821374570566824
aF0.016829393960615054
aF0.0036785780683022545
aF0.0070872940727546765
aF-0.0011358697545281145
aF0.010592537271570666
aF0.004993242707460363
aF0.01292482180032257
aF0.004978143165802072
aF0.005034960769132278
aF0.002106881809251049
aF0.0016715375315414526
aF0.008576820539182942
aF0.008212621175239253
aF0.012932536772093559
aF0.0026072265522860236
aF0.010555434238545125
aF-0.0059883776417128535
aF-0.001928567523506661
aF-0.025543168739418847
aF-0.01804618093583865
aF-0.05623535526383904
aF-0.047173020827759315
aF-0.015424116362388171
aF-0.027265747846290395
aF-0.03890524989748785
aF-0.03204541899770569
aF-0.014974274653787112
aF-0.01695194123569602
aF-0.028465323689715157
aF-0.017612718436355913
aF-0.020050284625715984
aF-0.023679669924093632
aF-0.021286979746739255
aF-0.015117644420080508
aF-0.012074864249569595
aF-0.013836022849339007
aF-0.017924745265037484
aF-0.016625109026689955
aF-0.02490815577687769
aF-0.020088825436443768
aF-0.017132649356014204
aF-0.009697822730934731
aF-0.011032099664635246
aF0.004035417695070796
aF-0.020871254160668214
aF3.2340177884335495e-05
aF-0.0034769442160172076
aF0.006599472186493122
aF0.017536413260507512
aF-0.0016328053057993216
aF0.0194476704165226
aF-0.0011094500944574819
aF-0.0025613485077612894
aF0.009586962405684428
aF-0.024604594460840665
aF0.004495084601522523
aF0.001910073221590859
aF0.017495686856530076
aF0.0420723801276685
aF0.03757524437448724
aF0.04800783895605104
aF0.012609738494091884
aF0.05460842546813867
aF0.05790827219672602
aF0.037555047414083144
aF0.028178208884897703
aF0.010125157301376538
aF0.040786360949855646
aF0.061989864513556175
aF0.07709170632343278
aF0.07654718951916908
aF0.06658326005988201
aF0.03841328180280955
aF0.03466116625145651
aF-0.004582815528377765
aF0.005199538361794016
aF0.012194167993062287
aF0.02363115564968896
aF-0.009804441458669018
aF-0.022994915504146833
aF0.007571095864250696
aF-0.0038508824192533347
aF-0.009699523178780336
aF0.001459924942411988
aF-0.015165508769281537
aF-0.03437853441847433
aF-0.02900319440834121
aF-0.03662164798791316
aF-0.029943050048090034
aF-0.027502906003205166
aF-0.027287319106578972
aF-0.056077307660012836
aF-0.046094379515879066
aF-0.023588293252995624
aF-0.00848891009701864
aF-0.013627313842345007
aF-0.029616628142240357
aF-0.018253801800175246
aF-0.0381396213407932
aF-0.031043763477406866
aF-0.018142245039424458
aF-0.0423815682436189
aF-0.02168106809720421
aF-0.027508731380799428
aF-0.04669988733914844
aF-0.03492537264623942
aF-0.04570911342187339
aF-0.05056926555159334
aF-0.009522679265039195
aF-0.04252051058121061
aF-0.03199923929797121
aF-0.03449426788656939
aF-0.032001591440332704
aF-0.04198814538685605
aF-0.03609248774427749
aF-0.0198256946571835
aF-0.044564533580633996
aF-0.018612688374311293
aF-0.05134210831130589
aF-0.03399554874212646
aF-0.05196033111685843
aF-0.0377163800742364
aF-0.0616385209474813
aF-0.056230821243186305
aF-0.06644922150496284
aF-0.04614237276106459
aF-0.07801489141750668
aF-0.05907509486096625
aF-0.04218318881716521
aF-0.0390434940063344
aF-0.0272543292712568
aF-0.024070775146718414
aF-0.02934671017018044
aF-0.022721579897382216
aF-0.011769249890191878
aF-0.03414475002760002
aF-0.039552019931818415
aF-0.001111416499193884
aF-0.034421982384842335
aF-0.02314998777555062
aF-0.043612674128017385
aF-0.027543554011023253
aF-0.008507350218653592
aF-0.029141548326642695
aF-0.039557013224885675
aF-0.03670413581663479
aF-0.0034698834479335713
aF-0.0337511755623155
aF-0.03070361931571947
aF-0.014364700908127068
aF-0.009506399331984888
aF-0.033224831902239155
aF-0.0265682220796463
aF-0.03202026778135966
aF-0.00837502418646668
aF-0.016492837292211286
aF-0.0065271673135122036
aF0.0059446252938363305
aF0.008872825178697391
aF-0.014668264602132032
aF0.0002598758440979638
aF-0.0005320829008695357
aF-0.012018197989240736
aF0.01359038210593593
aF-0.018310521161363943
aF-0.005024644986807957
aF9.335257953788771e-05
aF0.0068127745334931366
aF0.007621220024314489
aF0.020368583603334392
aF0.029591403136396306
aF-0.007791608325557551
aF0.03590275308107859
aF0.006497340202424842
aF0.022583581056830497
aF0.01526926496118346
aF0.015243566952964532
aF0.05222620644295451
aF-0.004425320260622365
aF0.04045700446935222
aF0.0361098264069469
aF0.04448494274686592
aF0.0304363349261562
aF0.04016787361412225
aF0.054731833369281294
aF0.01467476330451779
aF0.010895067548073765
aF-0.003095945668344226
aF-0.008789162728346515
aF0.02954771061613896
aF0.017002526504317977
aF0.03393649180567623
aF0.029731606637112547
aF0.013181578142926935
aF0.03570911918124635
aF0.014715494650002043
aF0.04688008007801779
aF-0.004544062392441626
aF0.012483162411402952
aF-0.005656500015590933
aF0.011089537652678554
aF0.043278820105894046
aF0.02676035389137184
aF0.023999064525898884
aF0.03388346327348032
aF0.004936984542419164
aF0.010771523209690615
aF-0.012956199268000918
aF-0.004502762345479413
aF0.00012883486539985443
aF0.029878900824811334
aF0.027416192035255096
aF0.05633679112055603
aF0.005260691733374254
aF0.04131640166704982
aF0.06590487882774348
aF0.025965709974616277
aF0.02912739895024726
aF-0.0036591254765868065
aF0.033764173680157716
aF0.04929763150938916
aF0.024401619020887104
aF0.022573254187530496
aF-0.04804326686192958
aF-0.02340639510443467
aF0.0022371081974816125
aF0.00023933972482718333
aF0.0006284568606832239
aF0.008648441146311974
aF-0.025807516031749838
aF-0.03565254692320105
aF-0.012854980740548666
aF-0.023151903798351595
aF-0.023889144433519756
aF-0.0038804684092551382
aF0.008918141779399818
aF-0.04601397430759616
aF-0.041431340474128726
aF-0.04087079881746213
aF-0.031931221877311
aF-0.028799534683295977
aF-0.021256521570677464
aF-0.005791751445598461
aF-0.04570136660810831
aF-0.029657248038960856
aF-0.042461378489499255
aF-0.06956311379255493
aF-0.061720415403811395
aF-0.06134004493187593
aF-0.031952832150110154
aF-0.028204620761436493
aF-0.01737923109824728
aF-0.05543070357201951
aF-0.04813467683334487
aF-0.09466373307221547
aF-0.09557875299505157
aF-0.06252362131701877
aF-0.1160722358371455
aF-0.08036006861879795
aF-0.02325092486156106
aF-0.0657300456349469
aF-0.04866129221867148
aF-0.07259412621828576
aF-0.05243760412059328
aF-0.062289788348031554
aF-0.05131967488866909
aF-0.03798774552979573
aF-0.054837884907480566
aF-0.03193918021210675
aF-0.02522394850307711
aF-0.02480299832814493
aF0.0070780154041957255
aF-0.004382569406756079
aF-0.02330433428416239
aF0.030502974067351432
aF0.01628537658112919
aF0.04824359729504003
aF0.03425842143136432
aF-0.00016888723662186392
aF0.05484526938517767
aF0.0096315142405468
aF0.014351978102034483
aF-0.04851339306238051
aF0.037546703046901095
aF-0.04129060775243214
aF-0.009698859693261886
aF-0.006789780672024387
aF0.0010768795024488765
aF-0.0180586284559024
aF-0.0024326750860476603
aF-0.0155282505149878
aF-0.017186697392468506
aF-0.011647627709904743
aF0.0062608956698543584
aF0.012465891911709694
aF0.003011908283736212
aF0.021673553465094423
aF0.007022691134239551
aF0.0018107784287424895
aF0.04570098464933009
aF0.008320402171966784
aa(lp25
F0.0009210374452412015
aF0.000686399956601903
aF0.001323962079722066
aF0.0007508121044151896
aF0.0008647853834656503
aF0.0008050837445342062
aF0.001370669939889843
aF0.0010456566382201003
aF0.0007648529511471147
aF0.0013578644744277233
aF0.0011626267491077695
aF0.0005759540577465388
aF0.00048295593899557604
aF0.00016145148528017716
aF-0.00011591273850657188
aF0.0010894567631751805
aF0.0006906240028573024
aF0.0015908343113785327
aF0.0009522507930690232
aF0.0005930132021390106
aF-0.000429653123155489
aF-0.0009642735286757284
aF-0.00014074095041990555
aF0.0018765802047390878
aF0.0019117696653826303
aF0.0018359062157699171
aF0.0014001993467371635
aF0.0015714840555238123
aF0.0017021482839805113
aF0.0021427944373117323
aF0.001418645309967461
aF-9.413816072717975e-05
aF0.0015104491882348174
aF0.002512122645121018
aF0.0037180581636088233
aF0.004085350426912548
aF0.0022089816138557484
aF0.001881163963299335
aF0.0021680866080371736
aF0.00477801689776264
aF0.0030122480383636963
aF0.004460189644352859
aF0.000344078902186342
aF0.00210866326893694
aF0.002564286196380056
aF0.004464763567860944
aF0.003371891766509129
aF0.0006028353688232998
aF0.0003611697672028378
aF7.712247751458527e-06
aF0.0023606452377824276
aF0.0014335790576069068
aF-4.559048630424944e-05
aF0.0003283897839618066
aF0.0008154482054687765
aF0.0009818778900257269
aF0.0012309648190268478
aF0.00015454345085598014
aF-0.0004963135996733109
aF-9.610658503315642e-05
aF-2.1629375658881012e-05
aF-0.001818388135502066
aF-0.0003624103303401735
aF-0.0007956238216534644
aF0.0018256788032920152
aF0.0018657688568909341
aF0.0004952816768070283
aF0.00022289073802241762
aF0.0007853837852109715
aF0.0004216830152680175
aF0.0019135968309717942
aF0.000943986067879446
aF0.0018952301444780182
aF0.00031211937933722577
aF0.0011965938314696298
aF0.0019990186848353724
aF0.002109840045662288
aF0.0012692350005460088
aF0.0009751599814556057
aF8.08489231911398e-05
aF0.0015785733517651023
aF0.0028685005681898844
aF0.001346861319424951
aF0.002372611922167789
aF0.0007882921874735175
aF0.0014040925608509852
aF0.0003235702276537818
aF0.00161687061410359
aF0.002452438198711497
aF1.723041447154082e-05
aF0.0015701235175458069
aF0.0013735152144794718
aF0.002082734336647105
aF0.0017621102210364666
aF0.0017523997412512166
aF0.0014731449625113872
aF0.001553772077534036
aF0.000819064613295856
aF0.002266592542302711
aF-8.106410840364879e-05
aF0.0017359057936166666
aF0.0029203088633599945
aF0.004428926533875779
aF0.001560333606817591
aF1.7300787236760447e-05
aF0.0013884701485531912
aF0.001655199973945902
aF0.0022893526923841875
aF0.0014739450998880405
aF0.0038877266541047285
aF0.0029264479044424545
aF0.008477675984873891
aF0.007431699879500804
aF0.00017892840137242563
aF-0.006862581545335999
aF0.0003551113749364526
aF-0.00559770367564873
aF-0.01800741466670603
aF0.004550924943618962
aF-0.006268161449316577
aF-0.013814763594435387
aF-0.012967863551730715
aF-0.018131343838046345
aF-0.014791318273730883
aF7.960991185190588e-05
aF-0.0008549813743146393
aF0.004313500624584528
aF0.0020912121860933463
aF0.008779927535355496
aF0.012438626066515131
aF0.02541145999274905
aF0.02241692428729787
aF0.007514215858946383
aF0.022222770256169103
aF0.014134095020497178
aF0.04409492977521844
aF0.028031567963553328
aF0.04929575221168451
aF0.03347864657215009
aF0.02365509627323665
aF0.0037136156014878708
aF0.021835363918591158
aF0.024429126907312783
aF0.00973060995694618
aF0.006815191559236782
aF-0.001505766280693263
aF-0.0003174818765737616
aF0.002482928077244581
aF0.003497832878559512
aF-0.0038284327906057086
aF-0.01416621368792671
aF-0.0011019009119120412
aF-0.0033922662328728917
aF-0.007957842065286519
aF-0.0007351549493404109
aF-0.005549430566807622
aF-0.006024911452393888
aF-0.009837478927796671
aF-0.008947554276160195
aF-0.012447671286757764
aF-0.022245428287459998
aF-0.006491989572520419
aF-0.029478439906645594
aF-0.025337845758362645
aF-0.021798853791903775
aF-0.019958062386531337
aF-0.03026303048159978
aF-0.014554165359294645
aF-0.019510827999754662
aF-0.015082663204436643
aF-0.02009375147681516
aF-0.004083710644415738
aF-0.007042080274547015
aF-0.00034877506491606076
aF0.003987515670861039
aF0.004661559565713552
aF0.0035972657944064305
aF-0.004202361197045838
aF0.0007070295689305348
aF0.0033603771747024503
aF0.007736284699840844
aF0.004399094652648478
aF0.0028163303511432197
aF0.007198201157783412
aF0.007513323249328208
aF0.007775771874336969
aF0.007964547562909376
aF0.007122848778589742
aF0.003269098804663715
aF0.011825421760455208
aF0.012434010705707071
aF0.009266155300187108
aF0.004176717913779618
aF0.003992026542824212
aF0.0013164453830944278
aF-0.0037191644742011628
aF0.0039413239541337495
aF0.002992765770575989
aF0.0033502654493585073
aF0.0024860850670817033
aF0.0005366321992792678
aF-0.0015423358475406455
aF0.0025422921078546803
aF-0.002841896763113948
aF-0.0025607534001765727
aF-0.0004810836117905408
aF0.0043433544074272705
aF0.0010917431563744516
aF0.004075243136335503
aF0.007609988059340871
aF0.004688558104030348
aF0.011133887385406972
aF0.0016172085831105433
aF0.0037383090415267564
aF-0.0015965420828148817
aF0.006508039814737413
aF0.0026923394930246734
aF0.008135469553753764
aF0.002586985776347996
aF0.0021789027998608593
aF0.00016652829740686142
aF0.00024802322102067913
aF0.004637275106724721
aF0.005585684965188385
aF0.0074904502531689815
aF0.0009547972174065155
aF0.006336128303019359
aF-0.006325319237225442
aF-0.003966370235973441
aF-0.0224388216746905
aF-0.017672504191199645
aF-0.04951332410633832
aF-0.04119591275344484
aF-0.014580959265173042
aF-0.022871437569306617
aF-0.03576510827931252
aF-0.029676049086717535
aF-0.013957942145320942
aF-0.01602329418508956
aF-0.026144303925652264
aF-0.017291290096609957
aF-0.01802609396235399
aF-0.021409990933138827
aF-0.017346121751722662
aF-0.012932226816847268
aF-0.011045204109425067
aF-0.011804916921635888
aF-0.015994576102817116
aF-0.016196668395834283
aF-0.021852662504357967
aF-0.01686660409975536
aF-0.014652585047604428
aF-0.008579904972461761
aF-0.011535724215897322
aF-9.919225450324975e-05
aF-0.018482308211130002
aF-0.005010998118261822
aF-0.006423710369539003
aF0.0032171104679155184
aF0.010993056715444517
aF-0.005697466316374557
aF0.007713694956397672
aF-0.003334425877738832
aF-0.005939831032190563
aF0.00257699742715438
aF-0.022873513024133135
aF-0.0015420469020798776
aF-0.002965396860102186
aF0.00822020776095524
aF0.024853781550570202
aF0.023746362944599888
aF0.03127543731200436
aF0.005949478117608789
aF0.03459857507660123
aF0.03979291299524819
aF0.02302829826808879
aF0.015174933215228522
aF0.0027820494936461643
aF0.02799018645744633
aF0.0411832009340719
aF0.05210126714975441
aF0.05170367178802349
aF0.046588621171964315
aF0.02554856475110994
aF0.023410769829328222
aF-0.006794642220412221
aF-0.0005147350656505135
aF0.0036004646260611927
aF0.017244070834050787
aF-0.012118838340846079
aF-0.020838490668066006
aF0.0029347996059041954
aF-0.006612567929078459
aF-0.010960739555908868
aF-0.0010072408972161841
aF-0.01490742544337308
aF-0.031084996757201562
aF-0.02444600833462839
aF-0.03255760547715321
aF-0.02735769400611341
aF-0.02334967870756836
aF-0.023693492029050994
aF-0.0493380269097354
aF-0.04031143775061024
aF-0.0240896375178166
aF-0.011039406534176574
aF-0.010128523161094095
aF-0.027552099561860412
aF-0.017707990228222757
aF-0.03185702599083073
aF-0.029958724133739657
aF-0.017644257334606415
aF-0.03812962298331084
aF-0.021162060937547786
aF-0.025486430247251907
aF-0.042932783139659356
aF-0.0337806613877025
aF-0.040438562334353174
aF-0.04659969586259852
aF-0.011173730587598666
aF-0.03877062647169418
aF-0.028791786126714018
aF-0.03231590297841376
aF-0.028281763960229238
aF-0.03716654697907426
aF-0.03403285135388835
aF-0.018549615736636035
aF-0.03994446763084102
aF-0.018095620399358858
aF-0.04568399852322534
aF-0.02850063634698198
aF-0.04607117075837822
aF-0.03198688123229911
aF-0.052463555916997646
aF-0.04684714041810173
aF-0.057290403541325335
aF-0.03692698920814453
aF-0.06582450587028515
aF-0.04817742133571707
aF-0.03558822211636978
aF-0.03239355694798758
aF-0.021629746399668838
aF-0.02081944737618948
aF-0.026134501453435825
aF-0.019948932659658396
aF-0.013317088962410607
aF-0.03047648688559836
aF-0.03697632695988903
aF-0.002729863476739603
aF-0.02981298475644927
aF-0.021961361033025584
aF-0.03835611355033648
aF-0.026264270201422135
aF-0.008938725346551204
aF-0.027083742279997727
aF-0.03329835129125043
aF-0.03255455975524789
aF-0.005047830410802751
aF-0.028360121822015787
aF-0.027228318000116332
aF-0.014735346205261651
aF-0.009870297647812899
aF-0.026279247005534925
aF-0.026636925162528465
aF-0.02717915586993046
aF-0.009950064476567206
aF-0.015307171132960009
aF-0.010561206075447747
aF0.0025574341519000636
aF0.003731499612469363
aF-0.015229054110327525
aF-0.0020306165251743656
aF-0.005063025050468234
aF-0.011580482356251377
aF0.008961204991037362
aF-0.016275634050914662
aF-0.005504450000141975
aF-0.002032387903759937
aF0.001977640204316491
aF0.0033547400742853575
aF0.011823113604498057
aF0.018599319759721802
aF-0.006962837934492623
aF0.022619962499457965
aF0.0014392455916382785
aF0.011774647699913328
aF0.008251646417230168
aF0.006975090603868275
aF0.034908910264658116
aF-0.00614140767808926
aF0.023943157296928474
aF0.02286322235405094
aF0.028022999924567322
aF0.015074529345479731
aF0.024235506596067765
aF0.03355076281376675
aF0.006350392511639365
aF0.00028865092540773167
aF-0.011634855298876017
aF-0.011385639882287578
aF0.013690056906896302
aF0.007984357565048616
aF0.020576912599648042
aF0.017163685093679115
aF0.0021990903217445276
aF0.02106074047925089
aF0.006322772387420255
aF0.029552807234916365
aF-0.011094148149159107
aF0.0049147675593930905
aF-0.008239330302251652
aF0.0038842030538696094
aF0.027737931193932395
aF0.01487712401361159
aF0.011783726315540581
aF0.021312036820296545
aF-0.0005962203188568615
aF0.0038614928150193357
aF-0.013382870942553488
aF-0.005462827200296947
aF-0.005942891764005711
aF0.015085829816247589
aF0.01229316195344701
aF0.03754577167455018
aF-0.002393419564127203
aF0.02591362669812282
aF0.0420058430507991
aF0.017170096255543048
aF0.015834677545803085
aF-0.0045828268933135975
aF0.022684883856153824
aF0.03382930810611545
aF0.014581824948452582
aF0.012929091612267499
aF-0.04550783129740495
aF-0.02492549634223351
aF-0.001620313508933427
aF-0.002493297747972599
aF-0.0012800547074235356
aF0.004950602689116688
aF-0.02424800426716974
aF-0.03299346837059054
aF-0.013759974736147141
aF-0.027933486331670546
aF-0.02301935679241977
aF-0.007257210126409899
aF0.005334149422484923
aF-0.040437847556457386
aF-0.03538122630426118
aF-0.0354844673310192
aF-0.03077418258359704
aF-0.02883254905122157
aF-0.02195658927140317
aF-0.005544033333001586
aF-0.04021369390778905
aF-0.02199789577967629
aF-0.03222906660045245
aF-0.056325396272299155
aF-0.050824250196475525
aF-0.05196890300897659
aF-0.03009951250540858
aF-0.02856595916806021
aF-0.017625663746403057
aF-0.050354707635597344
aF-0.04067459888888086
aF-0.0830666797679528
aF-0.08433982496259419
aF-0.0521031794949051
aF-0.09811525793557205
aF-0.0692709449476271
aF-0.0178603491902813
aF-0.05541943233400962
aF-0.04124330674605876
aF-0.05879571291732625
aF-0.04628654667797417
aF-0.057470808154487824
aF-0.045743295761592535
aF-0.03424979187972898
aF-0.04678611382209302
aF-0.02873924755328764
aF-0.022695951565382972
aF-0.025510243602799042
aF0.0016037650378382606
aF-0.010520321775077363
aF-0.025114114374216245
aF0.015182780248554989
aF0.006832304249130502
aF0.029678586444351476
aF0.01867062292350649
aF-0.008906552173929126
aF0.0334191866474964
aF0.0011095731624646008
aF0.0035886263871585783
aF-0.040493572594675356
aF0.02254780661084252
aF-0.03543642937229385
aF-0.016335007709448245
aF-0.007464970025998647
aF-0.005782399889439976
aF-0.01586993968058203
aF-0.010634992642923904
aF-0.016282068080101207
aF-0.021029480509551297
aF-0.012541548060456188
aF0.0011512211149631905
aF0.00317193302870654
aF-0.0047859139276959775
aF0.009152051827944587
aF-0.001959762666005602
aF-0.002630362121144734
aF0.02738534392898726
aF0.0031835172928956676
aa(lp26
F-0.0018051596011360008
aF-0.001190419138208714
aF-0.0023479608376828897
aF-0.0014124595443437264
aF-0.00167803365126715
aF-0.0015074507459259983
aF-0.0025189852577415122
aF-0.0019475423699007927
aF-0.0015355007434847674
aF-0.0025533562495773455
aF-0.002172124601816187
aF-0.0012933160421190462
aF-0.0008621225417540371
aF-0.0007045355059385999
aF-0.00027809066812300016
aF-0.0022351204561028163
aF-0.00154966368971601
aF-0.0028737165826631123
aF-0.0017207958691623632
aF-0.0011798633906687037
aF0.0003509658623973068
aF0.0008502922801340448
aF-0.00034121604422002763
aF-0.0036105601623702965
aF-0.003496006850469748
aF-0.003520480547598319
aF-0.002462901478955025
aF-0.0029173891326090802
aF-0.0032314356945949783
aF-0.004217218765237938
aF-0.0029662668427494028
aF-0.0005350310424813017
aF-0.0030603310268253903
aF-0.004656742711231347
aF-0.006525324785199053
aF-0.007252924973558707
aF-0.0038338374322272905
aF-0.003757406406752251
aF-0.004007108361183252
aF-0.008747464292306252
aF-0.005609814588416753
aF-0.007992419769587646
aF-0.0010635314047331749
aF-0.003773970192622629
aF-0.004792129049113498
aF-0.007806691463603881
aF-0.00592894993414907
aF-0.001597409962079711
aF-0.0009422587314537692
aF-0.0005072456269303827
aF-0.0042952681742078795
aF-0.0027372526129688006
aF-0.00024346056616175195
aF-0.0007836185357624492
aF-0.0014681961465369366
aF-0.0019058471988570758
aF-0.002315221407567429
aF-0.0005459486778206466
aF0.00036442048287188284
aF-7.683024323027476e-05
aF-0.000385287426947096
aF0.0025254422825057876
aF0.00010845576406618255
aF0.0006533996827477314
aF-0.0037614248867189532
aF-0.0034089564799184547
aF-0.0014229700941620503
aF-0.0006264142631886251
aF-0.0018969368652031495
aF-0.0011273954544564456
aF-0.003931212193228226
aF-0.0020640732180244314
aF-0.0036271632205489538
aF-0.0012568373767446544
aF-0.0023301640830085068
aF-0.0038819822281483136
aF-0.00406643868781924
aF-0.0029776690481402844
aF-0.001975419209048902
aF-0.0009519804207050277
aF-0.00293413596297209
aF-0.005674262570331016
aF-0.0027089508958222605
aF-0.004718572350452813
aF-0.0014935879295445839
aF-0.0031747505368415804
aF-0.0012186461419280785
aF-0.0035997465632220233
aF-0.0047827470408266645
aF-0.0011449009003917778
aF-0.003339804973831305
aF-0.003295998977163323
aF-0.0044997996849393245
aF-0.003772438061730656
aF-0.0034900152580893697
aF-0.003197405058089871
aF-0.003460537930584554
aF-0.0025136622972366197
aF-0.0044033782148912085
aF-0.0006420674944791113
aF-0.0035772757717628337
aF-0.0056406160510621
aF-0.008383682831126248
aF-0.0032893089912394403
aF-0.0006844312490112963
aF-0.002520213393103032
aF-0.0033713067592185193
aF-0.004493559561093116
aF-0.003303744028480569
aF-0.007659518170299653
aF-0.0062834938430200585
aF-0.01588048611711726
aF-0.014255843097503466
aF-0.004367276947588175
aF0.006902855609446986
aF-0.004545203019999427
aF0.0009517878836996771
aF0.02118740930785794
aF-0.012839001396951388
aF0.006294701277825217
aF0.015319291010757742
aF0.01792587847596441
aF0.025160329934301156
aF0.020016631601139333
aF-0.0023685230631671837
aF-0.005593661281706767
aF-0.015863085892874558
aF-0.008876543968072323
aF-0.02498955162998554
aF-0.030416175356667005
aF-0.050142139591591764
aF-0.049932978962867226
aF-0.02062685586205664
aF-0.05161589255853035
aF-0.029306275228035698
aF-0.08791947599395845
aF-0.055754092725023574
aF-0.0972654907633885
aF-0.06248601024915826
aF-0.046474808026583735
aF-0.012021735507832091
aF-0.04131654967865812
aF-0.04398158417799127
aF-0.020818595248733827
aF-0.01664802780843216
aF-0.001301086006975617
aF-0.0023113119450505247
aF-0.006645468744260515
aF-0.006697807314599921
aF0.004455734140850614
aF0.019108402921988617
aF-0.0003493754226874309
aF0.0026713181897054005
aF0.008724112492675098
aF-0.0015996774076176483
aF0.0048352427841611345
aF0.007941957379289018
aF0.0121233773182168
aF0.011258132042229396
aF0.016928273895741308
aF0.029121568834186328
aF0.007995373432441971
aF0.04078101727816285
aF0.03519832198121511
aF0.02919733753019403
aF0.028230268278537547
aF0.04211040298135664
aF0.02056760391264744
aF0.026896052962660393
aF0.02176621259128747
aF0.027314083187423656
aF0.003627952886692705
aF0.007761938393223069
aF-0.0031889579242676586
aF-0.00920100790731179
aF-0.010080327533407873
aF-0.00804254907273034
aF0.00537210996216617
aF-0.0017069865693042131
aF-0.006480937507814342
aF-0.014797642177149479
aF-0.010007942052607872
aF-0.0066424237102840865
aF-0.014189133450629936
aF-0.013900489652106952
aF-0.013548955314756786
aF-0.014419428535181161
aF-0.013343026928503842
aF-0.006886562135921815
aF-0.020961264893439076
aF-0.02324374712322184
aF-0.01681830471552556
aF-0.009512203395898996
aF-0.008358527455790542
aF-0.004071356357563696
aF0.003962141744722506
aF-0.009404679789640468
aF-0.007735192250087591
aF-0.006967281377882378
aF-0.007788553066657886
aF-0.002798363326319062
aF0.00019081326513482725
aF-0.005644740663686333
aF0.003289506696515017
aF0.0028197693809234744
aF-0.0005323512651357865
aF-0.008929552289290536
aF-0.003397503317132044
aF-0.008787355186807025
aF-0.014979798493065596
aF-0.010238981591461412
aF-0.02146773659259647
aF-0.004784017282856179
aF-0.009378449553376352
aF0.0011693151833152646
aF-0.01307322537277544
aF-0.006499837138539953
aF-0.016297248330838208
aF-0.0062390830507893244
aF-0.0065976070120691175
aF-0.0025848170747063246
aF-0.0022466249739374533
aF-0.010766350766422093
aF-0.010650760649200805
aF-0.016297942968585975
aF-0.003123425260435788
aF-0.013764212961267218
aF0.007440369898324469
aF0.0026668697504825286
aF0.030479261437378908
aF0.02135500781748115
aF0.07078352925427081
aF0.05663025200760737
aF0.018726185242441414
aF0.029966591734578326
aF0.047550870995448254
aF0.04170022463559349
aF0.01886263069421438
aF0.019474369034586
aF0.037000800982437146
aF0.02164068510683897
aF0.024206856182855847
aF0.028184338453034034
aF0.02459166510088465
aF0.018299184913255297
aF0.01383383476247258
aF0.016525295766397944
aF0.02229536333804974
aF0.0207362619028854
aF0.03050545782494789
aF0.023942759584604647
aF0.019726822322121355
aF0.010273932497722538
aF0.012479272354928527
aF-0.0062692704846024575
aF0.024909330833581354
aF0.0005511121714330494
aF0.004136742850714446
aF-0.010020965796913792
aF-0.024485580827300447
aF0.0008181922644351937
aF-0.023911163583712373
aF0.0007443451688273605
aF0.0008311697081715584
aF-0.013078219985610994
aF0.028800544534045125
aF-0.00820035996007468
aF-0.001853207651102486
aF-0.02416390658725523
aF-0.0515700013483073
aF-0.04771210922974456
aF-0.061784741518088875
aF-0.01756150851331926
aF-0.06926198716930008
aF-0.07391080985807806
aF-0.048175878086832255
aF-0.03663122914085368
aF-0.014129209432740155
aF-0.051160171375101496
aF-0.078600868105725
aF-0.0992324961468033
aF-0.09567656675687512
aF-0.08470217931995086
aF-0.047611324119162655
aF-0.04430515841698996
aF0.005540932621144139
aF-0.006211694076215185
aF-0.01202636844766938
aF-0.0309699342229019
aF0.01153915204855435
aF0.026434356350496825
aF-0.008561631474748699
aF0.006249306061595469
aF0.012663113444392853
aF-0.0022997835644929807
aF0.019009274067456824
aF0.04136179843174214
aF0.035002988245282224
aF0.046243698787704936
aF0.035737998110767714
aF0.03597525207483481
aF0.031880256205748
aF0.06945148935841151
aF0.05580182426804595
aF0.029681615274373917
aF0.011984992199523906
aF0.013539293655189836
aF0.034339912003446056
aF0.019782892618106285
aF0.0474650833975109
aF0.03684286674851977
aF0.02121603152701149
aF0.053419206797553624
aF0.022480929110588847
aF0.03345034903090732
aF0.05981170356836117
aF0.040630993567342046
aF0.05643204488331502
aF0.0635109284934177
aF0.011977630731147127
aF0.05308024447504602
aF0.040345335470032224
aF0.043104093471009984
aF0.037468926807630615
aF0.052650925706168694
aF0.047313286541357594
aF0.022523460565480935
aF0.055297189226130666
aF0.024456867896377955
aF0.06295657439185157
aF0.040395538263932586
aF0.06478024491244415
aF0.046498290442999475
aF0.07319377864710368
aF0.06843342104643597
aF0.0827150273610489
aF0.0542883155805458
aF0.09391905301778146
aF0.07057359298104114
aF0.050524747233230215
aF0.0475353257087027
aF0.030496724175634118
aF0.02934186280858796
aF0.03641376294705892
aF0.02722698329635721
aF0.014279908825273831
aF0.03884906277480203
aF0.047869840238193066
aF-0.00038120577996795797
aF0.038506514150531336
aF0.027808601481260197
aF0.05627436235732061
aF0.03252889702297478
aF0.010048454198632725
aF0.03775402841634243
aF0.04724839316277125
aF0.04427827089303799
aF0.004303138126788625
aF0.04128117588088739
aF0.036250278644372365
aF0.017853324968971986
aF0.010948477625093784
aF0.03982347683480749
aF0.033655643047642236
aF0.03805469557362378
aF0.01017816236992418
aF0.018871816863319707
aF0.007016692957030205
aF-0.00713352623881286
aF-0.012890816368818819
aF0.01800596277982319
aF-0.0013993246399561998
aF-0.00034126309606061705
aF0.014730318358586575
aF-0.017741281242786858
aF0.022160087885510795
aF0.005322690432951933
aF-9.684628111254119e-05
aF-0.009990749575076136
aF-0.010444581586978825
aF-0.025271904847958687
aF-0.0394381688449053
aF0.007841742187760428
aF-0.04655361043216677
aF-0.010030600645867766
aF-0.02954420531896666
aF-0.02178523610853171
aF-0.02085792370218864
aF-0.0666733352798207
aF0.004300992932742898
aF-0.05402399438436877
aF-0.04644365783114104
aF-0.05882182806418785
aF-0.039704035753518094
aF-0.05254909944220181
aF-0.06940929208210654
aF-0.020322826454483515
aF-0.013397680801857704
aF0.00286480036468154
aF0.009880680334821236
aF-0.03687007612489229
aF-0.023233035584377736
aF-0.04431197482899514
aF-0.039342497084050736
aF-0.01588665328004033
aF-0.04820780744668709
aF-0.018366201426544264
aF-0.05841600900091031
aF0.006096978099668441
aF-0.016478660421110597
aF0.004658864979654009
aF-0.01492805290187423
aF-0.05502922159152768
aF-0.034410533328673706
aF-0.03348093821719478
aF-0.04244940050971953
aF-0.006661242509548364
aF-0.013067697639828397
aF0.016364978326840526
aF0.002471649255135706
aF-0.0025180359862430734
aF-0.04061813883243746
aF-0.03492729777621385
aF-0.07361655204898036
aF-0.009614676306680009
aF-0.052323609215410634
aF-0.07882097840067515
aF-0.029321505811264612
aF-0.0351284007238053
aF-0.0005160126201259239
aF-0.04249274041881816
aF-0.06026796216503768
aF-0.02903729876757061
aF-0.027564342611667045
aF0.059239916443754176
aF0.030707383790196448
aF0.0006207012632564159
aF0.0018810979700588162
aF0.0004346794822540484
aF-0.01072223875867271
aF0.03226413651948831
aF0.046982769791344886
aF0.01573523145910574
aF0.03431415565029215
aF0.02609771656358546
aF0.0016071037819662558
aF-0.01053273687583705
aF0.05655622989708556
aF0.05080762535131297
aF0.05221457593933637
aF0.041143704859744
aF0.03385471908083447
aF0.02457222645267667
aF0.004591907590010831
aF0.05817524382536142
aF0.034005545747496715
aF0.05091736742235367
aF0.0836018794149007
aF0.07501659801873051
aF0.07710563936779848
aF0.038553111780504426
aF0.037293692044565334
aF0.020857510438164546
aF0.06978232194008739
aF0.054786944938309774
aF0.11157177446766647
aF0.12111465228878811
aF0.07367664721052555
aF0.14041443554695557
aF0.09586266407145383
aF0.024388747037158473
aF0.07947497684717653
aF0.05641988441079375
aF0.0863153679557664
aF0.0630401542617134
aF0.07773299533522719
aF0.06307726922683292
aF0.047117055529054284
aF0.06512479659473185
aF0.036435900578543616
aF0.02849251891015973
aF0.03093649201450031
aF-0.0096757820127395
aF0.0026021404928071737
aF0.027524297163075664
aF-0.037519018917510145
aF-0.021945172305760558
aF-0.059020191405712664
aF-0.044489489281637144
aF0.0009053016783591699
aF-0.06972130901716025
aF-0.009967044118379162
aF-0.01890582484812612
aF0.05745725804593948
aF-0.04697469652818534
aF0.04729809152781392
aF0.011631697220455746
aF0.006219961668974812
aF-6.64833515351977e-05
aF0.017845984611231675
aF0.004946302001923221
aF0.018140167812745533
aF0.02080189126443168
aF0.013280446761108651
aF-0.008112948297229796
aF-0.017574690518893363
aF-0.004454207372078687
aF-0.030137346383121735
aF-0.01207103503062657
aF-0.004041854283446556
aF-0.059940748509226205
aF-0.012651108475352146
aa(lp27
F-0.003463522288314576
aF-0.002193316341057252
aF-0.0041979621682181004
aF-0.0024920373106092865
aF-0.003132658124287108
aF-0.0028440294540036048
aF-0.004498225958953421
aF-0.00360346664820671
aF-0.0028168352632061858
aF-0.004564423515390733
aF-0.0037679635975813508
aF-0.0025521524378439454
aF-0.001555666204034989
aF-0.0015061342223057763
aF-0.00047477449512121244
aF-0.004032170493738059
aF-0.002818212066589613
aF-0.0051321379374633345
aF-0.002980819056963224
aF-0.002176572854585537
aF0.0003578945337253197
aF0.0012088139220514048
aF-0.0008544394640036
aF-0.006241745481387553
aF-0.006077882306951344
aF-0.006109586053985167
aF-0.004377121098317312
aF-0.005353026699712379
aF-0.005770297252029086
aF-0.007375096981234671
aF-0.005177494038995312
aF-0.001212522643034186
aF-0.005325744374902703
aF-0.008432597300374284
aF-0.011396834778957332
aF-0.012751434339927467
aF-0.006900158647466069
aF-0.0067158109329045566
aF-0.0072917842597518285
aF-0.015352657390776282
aF-0.010132008919491425
aF-0.014014537903881477
aF-0.0022060473265623813
aF-0.00688032326165307
aF-0.008668139428786295
aF-0.013828833047946259
aF-0.010561200393715721
aF-0.0031384469542153548
aF-0.0018778401705598319
aF-0.0014796309496190553
aF-0.00768224308264071
aF-0.0051542593661567165
aF-0.0009792269271565641
aF-0.0014962325405041752
aF-0.002833459163497853
aF-0.003592780606639811
aF-0.004411384111400779
aF-0.0013258167809098197
aF0.0002032348223383012
aF-0.0005058780260727249
aF-0.0010409325524503362
aF0.003576128093947239
aF0.000100999379854013
aF0.00044480019886510946
aF-0.006551125449079787
aF-0.0061900552351149465
aF-0.0027438613341503625
aF-0.0015062591174639802
aF-0.0036331003747334975
aF-0.0025186827335049273
aF-0.007077733196232142
aF-0.004171288296598893
aF-0.006341399059468206
aF-0.002583774585347501
aF-0.004425338902704649
aF-0.006983690221198042
aF-0.0070348330459659505
aF-0.005317039485448037
aF-0.003501210961333798
aF-0.002039883862277957
aF-0.005347889675663226
aF-0.009850198576335806
aF-0.005079242813459918
aF-0.008343920633532358
aF-0.002820232844806614
aF-0.0055506964585750685
aF-0.0022693688008646393
aF-0.006457708849845552
aF-0.008286276090677915
aF-0.002497568707983663
aF-0.006048934930644025
aF-0.005781797776786637
aF-0.00783280353423758
aF-0.006602581522073856
aF-0.006354428966659303
aF-0.005863511308900963
aF-0.006210019084025261
aF-0.004493895685172281
aF-0.007837786439255322
aF-0.0014844255083237775
aF-0.006455756629750473
aF-0.01014610338452918
aF-0.014764093740509335
aF-0.005957713877616754
aF-0.0017024078889001407
aF-0.004658417508864047
aF-0.006212254755430265
aF-0.008201894358987969
aF-0.00618368201238011
aF-0.013785169248636741
aF-0.011359101966378226
aF-0.02775367573643492
aF-0.025405658652863365
aF-0.009224052577510853
aF0.009139279103512235
aF-0.009793922244668253
aF-0.002004906907467437
aF0.03191003608939867
aF-0.023745779236061297
aF0.006601631864743469
aF0.02218497576560655
aF0.026942922830892703
aF0.037971118361450486
aF0.027628678146163318
aF-0.010150381559854416
aF-0.014107794662407996
aF-0.03224589840830366
aF-0.016699804339396673
aF-0.05165872329039424
aF-0.056200904677069174
aF-0.09238733212858308
aF-0.09464885567376179
aF-0.0422008086023786
aF-0.09330537875356464
aF-0.05374427512578653
aF-0.15855309978069854
aF-0.09924864606799769
aF-0.17127241065901058
aF-0.10946724446923552
aF-0.08270698324094884
aF-0.024615612197130578
aF-0.07373654697791768
aF-0.07891208203803549
aF-0.03876050105673358
aF-0.029175676061725445
aF-0.0042535536220031315
aF-0.006043198671604742
aF-0.014592290564596426
aF-0.014403017004213791
aF0.004060172696104408
aF0.029555433700613074
aF-0.0017024426049556376
aF0.002605849422663228
aF0.013541032394484636
aF-0.004251491832969735
aF0.006854414429309665
aF0.012017116055730314
aF0.018319872349621735
aF0.01734561211648093
aF0.026635391814059925
aF0.0471751234844585
aF0.01120678597236281
aF0.06586210991093627
aF0.05551614759529931
aF0.046395417264850164
aF0.04413715798127323
aF0.06763694561804345
aF0.03133324562719184
aF0.043494725072194845
aF0.03410928776585869
aF0.043769889852511915
aF0.0042801429787792
aF0.011527164487335873
aF-0.0073969325716654495
aF-0.017161187376890284
aF-0.018244315629311215
aF-0.015359375313410018
aF0.00680588953876979
aF-0.005821742614709268
aF-0.01308546714920279
aF-0.027541714466152
aF-0.018714076575563766
aF-0.011708795037389702
aF-0.025893592112839765
aF-0.02595329849588194
aF-0.02573202067262986
aF-0.02712843414115794
aF-0.02499125946277255
aF-0.013219281998723506
aF-0.0366789208800483
aF-0.04077546105854302
aF-0.02951404614170527
aF-0.017184911888845536
aF-0.015263527693202944
aF-0.007666797075265137
aF0.005956392935968555
aF-0.016830626857503087
aF-0.01376888472607274
aF-0.01234615453907492
aF-0.014303449305936607
aF-0.006228565933498193
aF-0.0010255624205069468
aF-0.011217361587929051
aF0.004114515746141032
aF0.0026843054205301716
aF-0.0024444296250788525
aF-0.01591317678732772
aF-0.006493631633336709
aF-0.015605948714939153
aF-0.025963020774251826
aF-0.01800406979565218
aF-0.03702800501681216
aF-0.009049015202906789
aF-0.016875242135826626
aF0.001471418462947948
aF-0.02284582852656629
aF-0.011863671871759721
aF-0.028734766162876353
aF-0.011740394186566826
aF-0.012862754749640931
aF-0.005691631391521137
aF-0.004948524649584865
aF-0.019769968266164097
aF-0.018914980522469524
aF-0.029040404690382576
aF-0.0065519743424319425
aF-0.024518828540513363
aF0.011209540658352545
aF0.002945598999566919
aF0.050007518750817104
aF0.03509518245979733
aF0.11504061702010218
aF0.09182665994722045
aF0.027394629361040836
aF0.04651550779993549
aF0.07491945532610378
aF0.06592667439202302
aF0.028641984238213195
aF0.029653560965847255
aF0.05821194531653928
aF0.03193752439080368
aF0.03773587308981014
aF0.04072619095823595
aF0.038019762667601896
aF0.02407746903857225
aF0.020310213467101542
aF0.023261375674025024
aF0.03475825729897598
aF0.033278280492378964
aF0.04788082785805688
aF0.036849829305279705
aF0.028266447735465106
aF0.013046193699991286
aF0.017532560985014836
aF-0.015722754781040793
aF0.03689045404686465
aF-0.004945970633896999
aF0.003051695456807124
aF-0.02226721997829561
aF-0.04854818784119027
aF-0.0020112657383392577
aF-0.04396458041998241
aF-0.0029038943792278078
aF-0.003921065671113444
aF-0.025016420922399984
aF0.04450627404741361
aF-0.019872601388569503
aF-0.008185884357184117
aF-0.048122490929121485
aF-0.09083517457408394
aF-0.08423998705220166
aF-0.11089637825799903
aF-0.03392696272277068
aF-0.12297173122647627
aF-0.12887294841919833
aF-0.08578796768421154
aF-0.06687627357397942
aF-0.028574622923362207
aF-0.09070538198967533
aF-0.13765039626460954
aF-0.17203823664952414
aF-0.1664686892542762
aF-0.14865322372046075
aF-0.08530869209604548
aF-0.07954072614155565
aF0.002523530244523223
aF-0.013760780048886865
aF-0.024512166829464735
aF-0.05622571105126814
aF0.01447508763094136
aF0.03756661502786312
aF-0.021086410083900095
aF0.005590461986628853
aF0.017409472271267164
aF-0.006716316830461486
aF0.029669623117647217
aF0.0631134184529972
aF0.05279996743674251
aF0.07027591069553542
aF0.05468049557644532
aF0.05317071841006389
aF0.04753672632039419
aF0.11008773619719195
aF0.08958581843886555
aF0.04675049355304179
aF0.015709513524766218
aF0.01850136555838527
aF0.05100496273490254
aF0.026590512397167265
aF0.07183921478848888
aF0.05401020756061438
aF0.028090522023542355
aF0.08241504322214575
aF0.031114340422424596
aF0.04809440384447579
aF0.09514335593768171
aF0.06249172495502114
aF0.08642975676427343
aF0.1014238104535141
aF0.012971041657451804
aF0.08463706803466983
aF0.06163428982112194
aF0.06690973295855412
aF0.059483452564004426
aF0.08433581312800065
aF0.0745469441847304
aF0.03462482370062642
aF0.09015405979036392
aF0.03524140771628074
aF0.09989369597063803
aF0.060914791849426574
aF0.10176685953418503
aF0.06933972302471753
aF0.11660539825788269
aF0.10510358361304263
aF0.13009905958479956
aF0.0828598973379196
aF0.1488997889652778
aF0.10924127486502476
aF0.078452767302283
aF0.07130701414149615
aF0.04619158165848371
aF0.043130184528204975
aF0.05414321871064644
aF0.04059759591428238
aF0.01866472973332692
aF0.06096933907751138
aF0.07522430567896327
aF-0.004093822089673064
aF0.06148944184180531
aF0.04340844648329971
aF0.08934346196539557
aF0.05140721978046973
aF0.015386245442684271
aF0.059000274662483414
aF0.07311502505233324
aF0.07194928985275555
aF0.005536683171362969
aF0.06264568179010013
aF0.05722713689394129
aF0.028891200485933743
aF0.015433667299096832
aF0.060757705061822036
aF0.05403002057427532
aF0.05779940229795442
aF0.011659357828421778
aF0.027332990147884928
aF0.006617095582762711
aF-0.016215799044184187
aF-0.02869989097650413
aF0.02321291179735653
aF-0.007446995364663705
aF-0.0031994979621122062
aF0.020631863291034187
aF-0.033586531465325746
aF0.03328910444939527
aF0.004798885268624136
aF-0.0024982590874559787
aF-0.02226722096359101
aF-0.023385096622803046
aF-0.04786083640306553
aF-0.07306381012769936
aF0.006624383138004492
aF-0.08757204500915437
aF-0.021761411456139218
aF-0.060015253576706014
aF-0.04853190684666182
aF-0.040722156462640186
aF-0.12192233516275536
aF0.0017313751756378583
aF-0.10067966629960344
aF-0.08374213219414647
aF-0.10721160612606895
aF-0.07621309951388577
aF-0.09529267253528118
aF-0.12443084153453819
aF-0.04099512187766771
aF-0.028650548407036076
aF0.0010122848746686084
aF0.009866354409316595
aF-0.06914611257348928
aF-0.04296328542812816
aF-0.08416670413191699
aF-0.07362386000072367
aF-0.031014436345171363
aF-0.08868135227538547
aF-0.035727835059883466
aF-0.10264824484995222
aF0.005360673622259402
aF-0.03306188747116536
aF-0.0005337211441003718
aF-0.02917318349258564
aF-0.09990666325463642
aF-0.06393755250339903
aF-0.06329056110607845
aF-0.0778131314321481
aF-0.015653974622165834
aF-0.026093200624052782
aF0.019698912011671416
aF-0.0030383580263342452
aF-0.01155257988535897
aF-0.07546169279807664
aF-0.06473970730126921
aF-0.13128269952444532
aF-0.02383331306754008
aF-0.09451147012553297
aF-0.13790869042743711
aF-0.05478845926981361
aF-0.06472717259594754
aF-0.006792665988406165
aF-0.07823999083597719
aF-0.11032549860656223
aF-0.05863415251237794
aF-0.05368095833384791
aF0.09237897670120848
aF0.04764450265468782
aF-0.0022560275530303267
aF-0.0025192923488267967
aF-0.005582266674792295
aF-0.02202192531466554
aF0.04726753667254403
aF0.0721931096625351
aF0.022776567929899273
aF0.05137003704043199
aF0.03694292054626559
aF-0.005804016679078369
aF-0.025399366606130288
aF0.08393476602571076
aF0.0754574328910175
aF0.07863791203458115
aF0.061840274084723715
aF0.05141584451783866
aF0.0333633521729201
aF0.0004731021833826463
aF0.0864928697209579
aF0.04848110571820241
aF0.07350139781718423
aF0.12816693750411728
aF0.11551075883797272
aF0.1218363183209125
aF0.06172226697861691
aF0.05588127936635806
aF0.030280013411765005
aF0.10857066880114992
aF0.08307211918923676
aF0.17784406860477023
aF0.19262824029791398
aF0.11415547469193532
aF0.22481318311736773
aF0.1530050452045126
aF0.030175562026542164
aF0.12346517317583439
aF0.08462267897332097
aF0.13167113590238824
aF0.09973980607862751
aF0.12384199164815127
aF0.0981354049453123
aF0.07039594486357251
aF0.10105997009648411
aF0.05656610246930433
aF0.04259288198498456
aF0.04630462522582986
aF-0.01748250938486344
aF-0.0011533945956263146
aF0.03827831889242248
aF-0.06892590220159645
aF-0.04762165104524265
aF-0.10510346050796848
aF-0.07991828919766186
aF-0.006065872822351186
aF-0.1215179490543537
aF-0.020965581466657526
aF-0.03885342984962179
aF0.08838591107872011
aF-0.08276360811797201
aF0.07104663171787076
aF0.011826373615961666
aF0.00531358791650049
aF-0.0062641127022580075
aF0.023539746739821496
aF0.003473368663061788
aF0.02599784141877304
aF0.026389491385169328
aF0.015203907838889192
aF-0.018542801177486204
aF-0.03845505854065374
aF-0.01183645155774661
aF-0.06173816808273695
aF-0.032834553343011025
aF-0.01937814162871135
aF-0.11514622842037815
aF-0.026231956991207214
aa(lp28
F0.0004080611053937429
aF0.0003541692169828206
aF0.0007696424278983551
aF0.00042332688774703796
aF0.0004397004959467986
aF0.0003978005471646694
aF0.0007846108145522487
aF0.0005385652646426141
aF0.0004374190402754081
aF0.0006940770716005922
aF0.0006468615667061113
aF0.00024334722749979544
aF0.0002453717571376613
aF3.7040997646101043e-05
aF-2.0041126453790937e-05
aF0.0005548280331304968
aF0.00017115017500484524
aF0.0007689403659794585
aF0.00039578318058100314
aF0.00024736456405509427
aF-0.0003359737433544278
aF-0.0004897600104798285
aF-0.00023161379278479892
aF0.0011334734937914837
aF0.0009342703575020661
aF0.001000957281039147
aF0.0006409499977701708
aF0.0007730767759292933
aF0.000864157533438078
aF0.0011949896564143372
aF0.000793740829864608
aF-9.26646069515931e-05
aF0.0008725336158576575
aF0.001219579931235348
aF0.0020361999117362167
aF0.0022368101724967353
aF0.0011094922236417417
aF0.001032812210578362
aF0.0009075408026793254
aF0.0025952735903644053
aF0.0013490476821566334
aF0.002486729586325949
aF-3.439677755875897e-05
aF0.0010884783658208043
aF0.001193891566739963
aF0.0023297059315516414
aF0.0017341768712941209
aF0.00018792876826427072
aF0.00018936434590670811
aF-0.00018144384828169005
aF0.0012439673544553406
aF0.000668648362588889
aF-0.0002458400972788223
aF0.0001630072408880555
aF0.00029074847298612
aF0.00042760407015671013
aF0.00041900503745271125
aF-8.15443792302767e-05
aF-0.000473492600283076
aF-0.00025068552015844296
aF-6.661944822438471e-05
aF-0.001407008650898457
aF-6.970385391837482e-05
aF-0.0007785326377117339
aF0.001030712062565735
aF0.0008792420065604816
aF0.000143544855997967
aF-4.9803665879643265e-05
aF0.00045377962837853195
aF6.819656331928447e-05
aF0.0011206583813658003
aF0.0002447036256148433
aF0.001082484147406958
aF-6.313333408478152e-06
aF0.0005075675331989402
aF0.0010376455696011378
aF0.0012476803936638924
aF0.0008434311378956851
aF0.0005907247171554215
aF6.539380834447557e-05
aF0.0007954291075732545
aF0.0018127839240868033
aF0.0006034396325715853
aF0.001509487775729985
aF0.00037779336549137915
aF0.0010773234262220711
aF0.00028134000751929404
aF0.0010515085028437532
aF0.001608619256689821
aF0.0001487185467651391
aF0.0009520791864193651
aF0.0009460519752034895
aF0.001359623302954829
aF0.0012051277933001407
aF0.0009501674836914155
aF0.0009342540584131997
aF0.001000504254524656
aF0.00042838326175239657
aF0.0012337538717653166
aF-0.00013122030128736808
aF0.0010112967025592229
aF0.0015735138749327596
aF0.0026270493784860244
aF0.0009448317033201414
aF5.6008871893456315e-05
aF0.0006627274110127839
aF0.0007285700707972572
aF0.0014055631576886814
aF0.0007694267161035209
aF0.002515925167485623
aF0.0019761709037592824
aF0.005371788647076409
aF0.004560630505404698
aF0.0008554298971433083
aF-0.002787940648794651
aF0.0009493028717482465
aF-0.0029354164460505617
aF-0.009819053373510208
aF0.004304766800535345
aF-0.003939436696745134
aF-0.006323296708959577
aF-0.007545409510310103
aF-0.011961529464283676
aF-0.008778098263874993
aF-0.0019558730917589107
aF-0.00012430687441837438
aF0.004000105682324915
aF0.0019443669293701853
aF0.005080957104264141
aF0.009296305995878253
aF0.016590350327775363
aF0.013532854571547629
aF0.0048472628538061766
aF0.017671282483159162
aF0.007398848850644429
aF0.026481134411264515
aF0.01505656247378916
aF0.03004182772701421
aF0.018259998290867795
aF0.01502711028668368
aF0.0003741016324147017
aF0.012840965414570138
aF0.011130633859490448
aF0.004615456658132645
aF0.004598969248986042
aF-0.0007809127346812129
aF-0.0019542580378666256
aF0.001059793868875018
aF0.0001985030564080031
aF-0.002559046778086471
aF-0.008819928616812377
aF-0.0006156869423962909
aF-0.0018293947573623497
aF-0.004394662696427256
aF-0.0005555256825118274
aF-0.0024833212594467116
aF-0.0035978617464045197
aF-0.004951360848361551
aF-0.004803288836513108
aF-0.007039321094916388
aF-0.011300307637858458
aF-0.003690294248295397
aF-0.015966090651399624
aF-0.01394685924013672
aF-0.011624391834238723
aF-0.011623823730670998
aF-0.016182372099555073
aF-0.008505387597603473
aF-0.0105149895697777
aF-0.008267090916674604
aF-0.010836324912623707
aF-0.0027762964739495525
aF-0.0039306569613088045
aF-0.0005113632072550758
aF0.0017431364534871664
aF0.0023465326529339063
aF0.0014491083192323493
aF-0.0036340895830919403
aF-0.0006746287968095109
aF0.0008730467664861465
aF0.003590469796489875
aF0.0022462281901749807
aF0.0016216617362243065
aF0.0036991966315753563
aF0.00319222160404744
aF0.0031360359301473564
aF0.0035064226919594454
aF0.003282785901410013
aF0.0017316886243756487
aF0.006891317618434785
aF0.007533912428892831
aF0.005528855067070226
aF0.0030224305324870605
aF0.0027898229862216638
aF0.0013267128936020826
aF-0.0016907952427273193
aF0.0030922694900674523
aF0.0024170952078757042
aF0.0020337773653041884
aF0.0022660608986901976
aF0.00017794086859903126
aF-0.0007776325582943099
aF0.0010612702650945349
aF-0.002004729381475674
aF-0.0019403256606956966
aF-0.0007105051108564768
aF0.00299734741403018
aF0.0009024937561154762
aF0.0029609130375159117
aF0.004772558015769052
aF0.0028401620134400766
aF0.006902102297989086
aF0.0010322455377001674
aF0.0025977019556986053
aF-0.0007306923894181052
aF0.004558569935231145
aF0.0017009065852813885
aF0.00525387029677983
aF0.0017131666406617605
aF0.0016054576032617622
aF0.0005205054218370002
aF0.00034866133171709596
aF0.003356736161577866
aF0.0030483683472713736
aF0.0053450883817738925
aF0.0008497332381162544
aF0.004253305381116772
aF-0.0029541388325444538
aF-0.0010918706468009548
aF-0.012417532841565377
aF-0.008690068140711256
aF-0.025712099968164186
aF-0.02273570694494993
aF-0.008102147037215289
aF-0.015082031959915575
aF-0.0188644204129483
aF-0.014632928313986267
aF-0.0072825503975703304
aF-0.008927153891903652
aF-0.013076977373009354
aF-0.008959237989045098
aF-0.010142395597421727
aF-0.012952111434611452
aF-0.011531963260032595
aF-0.008840638006249122
aF-0.006826910000144244
aF-0.007905587275840993
aF-0.008773635740191228
aF-0.00786788405501028
aF-0.012370159958370989
aF-0.010610053477316871
aF-0.009647541162737123
aF-0.006162673437236479
aF-0.006304699771380553
aF0.00035297147230563193
aF-0.011483385927406387
aF-0.000657588036009057
aF-0.002403458678774869
aF0.0011198130664772739
aF0.004976514188148609
aF-0.002147834122125599
aF0.008181474100772478
aF-0.0021657011914396544
aF-0.0033137952715580113
aF0.0032588443524263623
aF-0.012832735573354287
aF-0.0006120856321926612
aF-0.0006768588781344065
aF0.0043909347857469935
aF0.01738062028119901
aF0.014364375273194264
aF0.018081401736393783
aF0.002287182041407511
aF0.021393162280614848
aF0.022564104358480875
aF0.013761893305824125
aF0.009958145462560932
aF0.0019577471032711847
aF0.015460871918591983
aF0.024273738445481634
aF0.029608290221018446
aF0.029329417135880848
aF0.02367561950851664
aF0.012474333186528885
aF0.011561916553485036
aF-0.004549298309934935
aF-0.0007949735878278496
aF0.0028274278976202424
aF0.006470604560929478
aF-0.0070495327258779964
aF-0.01432814897454864
aF0.00020671042850731175
aF-0.004331586418171378
aF-0.006244247804766148
aF-0.0006651006101677271
aF-0.007805489064938843
aF-0.017963284767522195
aF-0.015528019063887104
aF-0.018739574329171102
aF-0.0165754265349042
aF-0.014720215961729361
aF-0.015625823238246968
aF-0.02712410458789115
aF-0.022537923518877782
aF-0.01158497620090765
aF-0.004601583989807938
aF-0.009248990207727958
aF-0.015969026958908047
aF-0.011341919747803662
aF-0.019700978383627422
aF-0.016904935547822027
aF-0.01069461859260897
aF-0.020746293370942272
aF-0.013435451517231549
aF-0.014772703366752755
aF-0.021869772623519676
aF-0.01829512607758841
aF-0.02285170632190359
aF-0.024068005134238436
aF-0.006049338002512081
aF-0.020630444697350578
aF-0.016110736191132995
aF-0.01698972100164903
aF-0.016401614067614253
aF-0.019857926375192844
aF-0.016454665166727105
aF-0.010777974242277031
aF-0.020943698397784465
aF-0.009202444600291923
aF-0.025090289166623193
aF-0.0181164387637813
aF-0.0253649177545478
aF-0.019736955418121975
aF-0.031493404279702035
aF-0.028702046992219142
aF-0.03250739175828042
aF-0.024722408131761305
aF-0.038969252332163286
aF-0.030528188875258894
aF-0.022142193408583158
aF-0.020619013401440137
aF-0.015625232103455296
aF-0.012959528499019744
aF-0.015169336011220948
aF-0.0126131270942829
aF-0.007249226663837634
aF-0.01844183662290049
aF-0.0198527129350411
aF-0.0022832054011670457
aF-0.018155888431828724
aF-0.011482189099687718
aF-0.020047194102873176
aF-0.013925328577582243
aF-0.004467014283814395
aF-0.01355979812749493
aF-0.020165531457688096
aF-0.017880009082652446
aF-0.0019305014318150428
aF-0.01738023959436297
aF-0.01590623252209078
aF-0.006954577669617932
aF-0.005463326687497366
aF-0.017521929886401385
aF-0.0121906973465054
aF-0.01687204484346554
aF-0.005040413303100422
aF-0.009687287837938117
aF-0.004674350762852287
aF0.001323221959886647
aF0.001584477104355233
aF-0.00840962996266726
aF-0.001339549810717787
aF-0.0009222100048550855
aF-0.006658155671515006
aF0.004821274319895082
aF-0.009674821425910682
aF-0.00405098500364607
aF-0.001012942389499017
aF0.0008556519602461096
aF0.0013208117113391632
aF0.008104750442562373
aF0.011353682904839084
aF-0.006246681497673964
aF0.014069358921721703
aF0.0010327432371000282
aF0.007851297794545575
aF0.0033310932920843153
aF0.005251110958897795
aF0.021425797832015963
aF-0.004488224995039639
aF0.015043768761931153
aF0.014085572265147714
aF0.016762970304548905
aF0.010771314766416374
aF0.015051752554217908
aF0.0224200063438097
aF0.0037794474492302485
aF0.004025667715764454
aF-0.002450802737384194
aF-0.006368945193662812
aF0.011420158878629363
aF0.005025159127846517
aF0.011069517335029208
aF0.009353472925628867
aF0.004195885356029309
aF0.011732036576555404
aF0.004400070581767618
aF0.01915636928453991
aF-0.0037045310748714468
aF0.0031996810298204757
aF-0.006241423648004163
aF0.0026245428162452867
aF0.015725006165850423
aF0.008091048770988962
aF0.005492688717562768
aF0.01194647153580715
aF-0.00020848427241175482
aF0.0030994044357383686
aF-0.008856904870319628
aF-0.006792112332736548
aF-0.0037622721367109426
aF0.007990503484108742
aF0.007496294627286897
aF0.019373146987629326
aF-0.0021026626535651572
aF0.01388446698916399
aF0.026127583819706403
aF0.007632107992505446
aF0.010237655764397665
aF-0.006180300194331027
aF0.010040212459213977
aF0.015759319436347455
aF0.00447368731531029
aF0.005412532878627383
aF-0.024475498120903872
aF-0.011935722306775679
aF-4.455435787142881e-05
aF-0.002478698267680268
aF-0.0029244143315413527
aF0.000756856469128388
aF-0.01496747509454923
aF-0.01705690536604472
aF-0.007975486228695225
aF-0.011316538896690709
aF-0.016994615462419586
aF-0.008078047522392275
aF-0.00033932240734807896
aF-0.025405632214385625
aF-0.021804058482687284
aF-0.020572807097380078
aF-0.016448629278288947
aF-0.016204096746980673
aF-0.013705861686465308
aF-0.00710990298446231
aF-0.02367258730863563
aF-0.017779217166339824
aF-0.024061664958130516
aF-0.036816717449932534
aF-0.03191976532752366
aF-0.02987880357459428
aF-0.01635904401692336
aF-0.01394130757228719
aF-0.010331866890836571
aF-0.02714457503221921
aF-0.02703370699950939
aF-0.048741833231575556
aF-0.045720293344071634
aF-0.03311700247049888
aF-0.05730740747754652
aF-0.041108040316423865
aF-0.016301367584216627
aF-0.034094884892175076
aF-0.027283243920794217
aF-0.03853958434070672
aF-0.026725485681736626
aF-0.029847850934609597
aF-0.026019597243490507
aF-0.01984809218143962
aF-0.028780402554098684
aF-0.017553854837338883
aF-0.014157157954992556
aF-0.012825737843783009
aF0.002294198694651383
aF-0.004797213127426411
aF-0.014032826861020415
aF0.011727672273541222
aF0.002269004893564998
aF0.019723952182552938
aF0.012609618585728843
aF-0.0024463491253794182
aF0.022335419798595362
aF0.0036023972864900576
aF0.004056370594016467
aF-0.02579947022856954
aF0.015934016895496003
aF-0.02335852729969527
aF-0.006551012899504384
aF-0.00586778472983266
aF-0.0006874750111066981
aF-0.012526575747278912
aF-0.0015284892960691736
aF-0.009437036886817988
aF-0.010245118406242098
aF-0.007456683849571935
aF0.0012714950043557218
aF0.003147007730129439
aF-0.00019776958720232014
aF0.006407335970172203
aF-0.0006926222560459951
aF-0.002293525959157061
aF0.017454051926454953
aF0.0014044870687599691
aa(lp29
F0.0008266262614209726
aF0.0006170914783195927
aF0.0012172031668091503
aF0.0006840620995692701
aF0.0007891724770721297
aF0.0007423362935646112
aF0.0012595730469669563
aF0.0009459861262812332
aF0.0006683336948845572
aF0.0012323275255039555
aF0.001045341074534909
aF0.0004904487135653882
aF0.00043717509480271477
aF0.0001149233032920786
aF-0.00016679838021848984
aF0.0009638357881857062
aF0.0005914459438717516
aF0.0014444148921209344
aF0.0008646494764269797
aF0.00052492320190154
aF-0.00046545598467990276
aF-0.000999464824999493
aF-0.00020784228275874745
aF0.0016872318961710924
aF0.0017383613198234768
aF0.0016606035848907015
aF0.0012810456633940593
aF0.0014376316435055867
aF0.0015466109589561698
aF0.0019523493443990552
aF0.0012642619803420222
aF-0.00017338611698208391
aF0.0013596073749142581
aF0.0023079056739540235
aF0.0034508566648616475
aF0.0037946036974574712
aF0.0020401180530857693
aF0.0016965378397884368
aF0.0019786445187859845
aF0.00441352406624324
aF0.002770071237537756
aF0.004132984895858372
aF0.00027416369380723894
aF0.0019390455841093598
aF0.0023484053203284847
aF0.004147097890441766
aF0.00312521637850146
aF0.0005051940865284824
aF0.0002991762595556181
aF-5.7796939150498946e-05
aF0.002178693042860514
aF0.001296428415600123
aF-9.148400162204395e-05
aF0.00028301351115560345
aF0.0007458678939599723
aF0.0008806052630317175
aF0.0011192308523119993
aF9.153719362416503e-05
aF-0.0005278823169892379
aF-0.0001344104827779541
aF-8.035889678702336e-05
aF-0.0017621078115825242
aF-0.0004009968909363155
aF-0.0008233350536387094
aF0.001644975844612954
aF0.0017110991068618733
aF0.0004074387009653132
aF0.00017233016082008828
aF0.0006635245178518936
aF0.000326045433933754
aF0.0017210848665209478
aF0.0008309092851323794
aF0.0017434828832063824
aF0.00023688609029738996
aF0.0010822801880449294
aF0.0018229844784084885
aF0.001920183193490668
aF0.0010931611641592602
aF0.0008750322469794613
aF-2.3123554902512276e-06
aF0.0014496433291110178
aF0.0026084388849034793
aF0.0012170664144147887
aF0.002143449117515978
aF0.0007146789574514967
aF0.001234824315966298
aF0.0002301517359171478
aF0.0014233242175515394
aF0.0022279076055871363
aF-0.00011542548686393675
aF0.001418197399508993
aF0.0011992563966863024
aF0.001856538021880529
aF0.0015543582744053817
aF0.0015772930431876679
aF0.001292942526241207
aF0.0013508449379422088
aF0.0006689839680634149
aF0.002060371861363148
aF-0.00015040224800102954
aF0.0015642886853826064
aF0.002656510007697055
aF0.004066945622877053
aF0.0013869193561341045
aF-6.383521768206968e-05
aF0.0012705823607319013
aF0.0014947379043267065
aF0.002070466148864797
aF0.0013179258596987915
aF0.0035379550295846704
aF0.002616095965652238
aF0.007806590193667033
aF0.006784458344979742
aF-0.0002618273441535582
aF-0.007013252906967592
aF-7.389456463316159e-05
aF-0.006016247334133408
aF-0.017845471944694526
aF0.003727686586680264
aF-0.006399666326537739
aF-0.013979249414142957
aF-0.01280106009407464
aF-0.017677668101758415
aF-0.01467448697008877
aF-0.0003478210974642889
aF-0.001625625275540527
aF0.0030604253257982853
aF0.0012297894004587222
aF0.007180271464872888
aF0.010607553328949358
aF0.023092674425757746
aF0.019930309627168616
aF0.006113040413959069
aF0.019329284826782398
aF0.012464670001202141
aF0.03984782538400238
aF0.02521721434749544
aF0.044619306476217376
aF0.03066997194059033
aF0.021458247304321686
aF0.0027303545304496503
aF0.01953484335700415
aF0.022256707115170526
aF0.008278041378896907
aF0.005675507277878243
aF-0.002054933136808339
aF-0.0008039148442979549
aF0.0016674249749408408
aF0.003044960743719316
aF-0.0041098312069937455
aF-0.01391460835799396
aF-0.001391236264940544
aF-0.0036506896537466063
aF-0.008023955395684571
aF-0.0010166586076755025
aF-0.005796599132592564
aF-0.0060260523322507465
aF-0.009838062449599132
aF-0.008880477895102365
aF-0.012136682103251322
aF-0.021847298262895293
aF-0.006533261988629691
aF-0.028797535711190918
aF-0.024782390711172452
aF-0.021490497831712252
aF-0.0195023353450573
aF-0.029576046654062008
aF-0.014269282089976925
aF-0.019124161979065
aF-0.014712236348941714
aF-0.019690476983959412
aF-0.00422785863959841
aF-0.007160971254456812
aF-0.0007714376310773539
aF0.0033958235567691122
aF0.004042498476939391
aF0.0030934820375916805
aF-0.004204238302717992
aF0.0004923776833057713
aF0.0029450241898527846
aF0.007009305490692171
aF0.0038242186064657234
aF0.0024014972812086495
aF0.0065132136832763855
aF0.006889404846309801
aF0.007176673284105806
aF0.007321008303547739
aF0.006529109136968253
aF0.002865616045976538
aF0.010956224698550895
aF0.011417687846144772
aF0.008532163299147627
aF0.003625614727531268
aF0.0035605355088635256
aF0.0010245547903507666
aF-0.0037808214730535813
aF0.0033951934359222656
aF0.0024977013744916943
aF0.002975164381006174
aF0.0019485718509428868
aF0.0002811139648870297
aF-0.0017535652870254888
aF0.0022331627538617286
aF-0.002883909469307739
aF-0.002602954116402768
aF-0.0006088519718304539
aF0.003885521622658795
aF0.0008155304468062493
aF0.003594322909103162
aF0.006917555409707502
aF0.0041408487905312055
aF0.010178943634868931
aF0.0012311823136635274
aF0.0032007872680623654
aF-0.0016574275954477186
aF0.005876284853076711
aF0.00230407256740607
aF0.0073598456216160514
aF0.0021853695805881916
aF0.0017261563150844574
aF-0.00013688961967724093
aF1.6284376452646327e-05
aF0.004023427974271628
aF0.005129473116696829
aF0.006676344989519806
aF0.0007051658068477455
aF0.0056997908916968975
aF-0.0063229999689709705
aF-0.004213721212682572
aF-0.021828573069618835
aF-0.01748545247939564
aF-0.04813039978292614
aF-0.03996578463102052
aF-0.01440794103310896
aF-0.02225086686037701
aF-0.035013696802404966
aF-0.0291123746102592
aF-0.013731929717121373
aF-0.015793402698755607
aF-0.025610773916774996
aF-0.017177656826626867
aF-0.017693756412860157
aF-0.02111230120136072
aF-0.016798831867960554
aF-0.012721553914590006
aF-0.010911530367315717
aF-0.011597613343444904
aF-0.015651588078336547
aF-0.016025097119147808
aF-0.021391022197898575
aF-0.016464547527858506
aF-0.01434966762489432
aF-0.008514794464666227
aF-0.011583318637485525
aF-0.0007227933563784543
aF-0.018181731586803827
aF-0.005655477649091145
aF-0.006795281302811081
aF0.0026131266455506736
aF0.009765667735183045
aF-0.006347566190577078
aF0.005991311890431603
aF-0.00382299636435729
aF-0.006545034652053829
aF0.0015016776841701217
aF-0.02255891796512188
aF-0.002548571497121758
aF-0.003811674932101764
aF0.006594397278847791
aF0.022118634932375685
aF0.02137089471516518
aF0.02834800358312804
aF0.00458055061049721
aF0.031179726952063596
aF0.036489520988953375
aF0.020371226988729535
aF0.012907970133647275
aF0.0014983092507198357
aF0.025666475824894213
aF0.03751714944186657
aF0.04751299663426992
aF0.0468896142457178
aF0.042340548744106164
aF0.022607782946203542
aF0.021015853797025776
aF-0.007316634077974447
aF-0.0017510813972258228
aF0.0018287986104212064
aF0.015605883135806199
aF-0.012716251996889432
aF-0.0208658565482777
aF0.0017653101347445185
aF-0.007408738396936287
aF-0.011330153799501636
aF-0.0014448344607281907
aF-0.014850086938502819
aF-0.030562151018528657
aF-0.02384443871249272
aF-0.03198563086237721
aF-0.027092957847889856
aF-0.02291808789418696
aF-0.0233191547025571
aF-0.04810798456644257
aF-0.039248218862636776
aF-0.024046629434133562
aF-0.011428239809076887
aF-0.009850200627039497
aF-0.027214096663710698
aF-0.017737710377134362
aF-0.03101835800437586
aF-0.029759020883050328
aF-0.017609625454931884
aF-0.03738022787161527
aF-0.021113871813824497
aF-0.025153559174614763
aF-0.042132824158395754
aF-0.03343424427026186
aF-0.0394956189405892
aF-0.04574608699733967
aF-0.011437264549922352
aF-0.03805783167425019
aF-0.028276445640702495
aF-0.03185441851901309
aF-0.027604317670048627
aF-0.03623104740339223
aF-0.03346050120876723
aF-0.018298026121317014
aF-0.03900958541791215
aF-0.017974306035859956
aF-0.04468609917214105
aF-0.02775958153182298
aF-0.04511100603366486
aF-0.03126306559476386
aF-0.05111773097417443
aF-0.045517217972638746
aF-0.055888459762012864
aF-0.035771342296406466
aF-0.06394709541573973
aF-0.04664177849269984
aF-0.034755826485476295
aF-0.03153285020731343
aF-0.021007448522089352
aF-0.02041576813809159
aF-0.02565011098006812
aF-0.019619563594533974
aF-0.013593114468378032
aF-0.02992953172385198
aF-0.0363938885779401
aF-0.0030943622420956636
aF-0.029061991653059015
aF-0.0216136352558405
aF-0.03739426706321331
aF-0.02598170617860768
aF-0.00897789552518163
aF-0.026619350684570293
aF-0.03229970097191804
aF-0.03179345643523841
aF-0.005244912186105922
aF-0.027566312284206557
aF-0.026638076973594518
aF-0.014703980965519623
aF-0.009900867003346588
aF-0.02532701057657476
aF-0.02638053449885142
aF-0.026479561653270752
aF-0.01018304063071002
aF-0.015204643987877504
aF-0.011123549999153392
aF0.0019283685405139413
aF0.0028494498761446256
aF-0.015328443226980643
aF-0.002419022437204441
aF-0.005616457906185261
aF-0.011540526493043327
aF0.008135714595917302
aF-0.01598658634017314
aF-0.005709184833775343
aF-0.0024350232655065565
aF0.0011435725704189723
aF0.0025582172651576257
aF0.010481728254492796
aF0.01690261048097906
aF-0.007061250555406328
aF0.020544457292491276
aF0.0006371342940303761
aF0.0101323720315077
aF0.007018046786922428
aF0.005790778985498241
aF0.03220130657703305
aF-0.006599316571537255
aF0.02132949794239877
aF0.02063833984305603
aF0.02528119508487239
aF0.012576879476435003
aF0.021579632948431154
aF0.030231820037375765
aF0.004922645782759234
aF-0.0011852072616723556
aF-0.012719901464839712
aF-0.011888389341430265
aF0.011220228975932282
aF0.006419109709690102
aF0.01811123109619915
aF0.014798303154110772
aF0.0004047427919908361
aF0.018468897234934844
aF0.004795150176953315
aF0.02668882808651412
aF-0.012047843039978003
aF0.0035666567486001438
aF-0.00889439813766848
aF0.002613641560452743
aF0.024950627558882405
aF0.012581689157727246
aF0.009410285964185028
aF0.01897337183608575
aF-0.001686844285575911
aF0.0026208574775110653
aF-0.013698719486402385
aF-0.006030859897500824
aF-0.0071112334046198305
aF0.012260416167525979
aF0.009232884992966992
aF0.033628532552678746
aF-0.004156508146352446
aF0.022778547747901983
aF0.037647632564599735
aF0.015090534929154275
aF0.013341195825526146
aF-0.005241266706498232
aF0.020064556194077557
aF0.03020197063495991
aF0.011943685164216988
aF0.010599613935261525
aF-0.04517284317163548
aF-0.025145395100028247
aF-0.0024519667593941355
aF-0.0033340313497644968
aF-0.002020229443705406
aF0.0039013942673304606
aF-0.024345248565010816
aF-0.0325473662093411
aF-0.014083228620991846
aF-0.028677101089057588
aF-0.023470717043099883
aF-0.008378674743840993
aF0.004167059176147521
aF-0.0398238524115756
aF-0.034529186898199
aF-0.03468501763818817
aF-0.03059555874335549
aF-0.028912690786573502
aF-0.02232105860276779
aF-0.0060101085039182735
aF-0.039519966637890515
aF-0.021265315313605523
aF-0.031112260584158637
aF-0.05455959243325645
aF-0.049246452195920526
aF-0.05038945000259864
aF-0.0297046127360966
aF-0.028573125886229022
aF-0.017822892604359743
aF-0.04960814721404857
aF-0.039750247732114136
aF-0.08114107691907879
aF-0.08240075991199775
aF-0.0505669763149195
aF-0.09521389376908114
aF-0.06755905344029829
aF-0.017539713117456484
aF-0.05395639129119052
aF-0.040325873685258286
aF-0.05683707629173733
aF-0.04528862804923846
aF-0.05640189519682492
aF-0.04472257001261593
aF-0.03364531109655828
aF-0.04563275481260683
aF-0.028332889233877865
aF-0.022423714493676125
aF-0.025643707240725778
aF0.0006884039220490833
aF-0.01153547424120124
aF-0.025538572913055384
aF0.012840737830708637
aF0.005003142010931288
aF0.026667395295782555
aF0.016143100877214295
aF-0.010169952799852435
aF0.03000713093678851
aF-0.00020422767119913945
aF0.0018355250280182227
aF-0.03938482880232693
aF0.020268223803606725
aF-0.034755171208617666
aF-0.017332642843493357
aF-0.007815641815801732
aF-0.0068284053650969866
aF-0.015770222612993857
aF-0.011661029212870981
aF-0.016496774003583795
aF-0.021621704294967653
aF-0.012724713636193196
aF0.00026360104413408823
aF0.0017903473515667157
aF-0.0059309474640219465
aF0.007186104279462919
aF-0.003457368693669852
aF-0.0034535559696428327
aF0.02457638643229806
aF0.0023097259111681747
aasS'nips'
p30
I512
sb.